c__builtin__
set
p1
((lp2
(icfg
cfg
p3
(dp4
S'_cfg__cfg_dict'
p5
(dp6
(iarch
basic_blk
p7
(dp8
S'insns'
p9
(lp10
(iarch
instruction
p11
(dp12
S'addr'
p13
L4159L
sS'calls'
p14
NsS'ops'
p15
(lp16
S'!d_resp_0'
p17
aS'A'
asS'raw_bytes'
p18
S''
sS'cond_true'
p19
I0
sS'type'
p20
I0
sS'mnem'
p21
S'mov'
p22
sba(iarch
instruction
p23
(dp24
g13
L4162L
sg14
Nsg15
(lp25
S'A'
aS'#01h'
p26
asg18
S''
sg19
I0
sg20
I0
sg21
S'mov'
p27
sba(iarch
instruction
p28
(dp29
g13
L4164L
sg14
Nsg15
(lp30
S'!byte_FE14'
p31
aS'A'
asg18
S''
sg19
I0
sg20
I0
sg21
S'mov'
p32
sba(iarch
instruction
p33
(dp34
g13
L4167L
sg14
Nsg15
(lp35
sg18
S''
sg19
I0
sg20
I0
sg21
S'ret'
p36
sbasS'ea'
p37
I0
sbg1
((ltRp38
ssS'arch'
p39
ccopy_reg
_reconstructor
p40
(carch
DummyArch
p41
c__builtin__
object
p42
NtRp43
(dp44
S'instr_set'
p45
(dp46
sbsS'st_addr'
p47
L4159L
sS'end_addr'
p48
L4168L
sba(icfg
cfg
p49
(dp50
g5
(dp51
(iarch
basic_blk
p52
(dp53
g9
(lp54
(iarch
instruction
p55
(dp56
g13
L2334L
sg14
(icfg
cfg
p57
(dp58
g5
(dp59
(iarch
basic_blk
p60
(dp61
g9
(lp62
(iarch
instruction
p63
(dp64
g13
L2133L
sg14
Nsg15
(lp65
S'A'
aS'FLPMC'
p66
asg18
S''
sg19
I0
sg20
I0
sg21
S'mov'
p67
sba(iarch
instruction
p68
(dp69
g13
L2135L
sg14
Nsg15
(lp70
S'A'
aS'#03h'
p71
asg18
S''
sg19
I0
sg20
I0
sg21
S'and'
p72
sba(iarch
instruction
p73
(dp74
g13
L2137L
sg14
Nsg15
(lp75
sg18
S''
sg19
I0
sg20
I0
sg21
S'ret'
p76
sbasg37
I0
sbg1
((ltRp77
ssg39
g43
sg47
L2133L
sg48
L2138L
sbsg15
(lp78
S'!chk_flash_mode'
p79
asg18
S''
sg19
I0
sg20
I3
sg21
S'call'
p80
sba(iarch
instruction
p81
(dp82
g13
L2337L
sg14
Nsg15
(lp83
S'locret_928'
p84
asg18
S''
sg19
I0
sg20
I1
sg21
S'bnz'
p85
sbasg37
I0
sbg1
((lp86
(iarch
basic_blk
p87
(dp88
g9
(lp89
(iarch
instruction
p90
(dp91
g13
L2344L
sg14
Nsg15
(lp92
sg18
S''
sg19
I0
sg20
I0
sg21
S'ret'
p93
sbasg37
I0
sba(iarch
basic_blk
p94
(dp95
g9
(lp96
(iarch
instruction
p97
(dp98
g13
L2339L
sg14
Nsg15
(lp99
S'byte_FE98.04h'
p100
aS'locret_928'
p101
asg18
S''
sg19
I0
sg20
I1
sg21
S'bt'
p102
sbasg37
I0
sbatRp103
sg87
g1
((ltRp104
sg94
g1
((lp105
(iarch
basic_blk
p106
(dp107
g9
(lp108
(iarch
instruction
p109
(dp110
g13
L2344L
sg14
Nsg15
(lp111
sg18
S''
sg19
I0
sg20
I0
sg21
S'ret'
p112
sbasg37
I0
sba(iarch
basic_blk
p113
(dp114
g9
(lp115
(iarch
instruction
p116
(dp117
g13
L2342L
sg14
Nsg15
(lp118
sg18
S''
sg19
I0
sg20
I0
sg21
S'ei'
p119
sbasg37
I0
sbatRp120
sg113
g1
((lp121
(iarch
basic_blk
p122
(dp123
g9
(lp124
(iarch
instruction
p125
(dp126
g13
L2344L
sg14
Nsg15
(lp127
sg18
S''
sg19
I0
sg20
I0
sg21
S'ret'
p128
sbasg37
I0
sbatRp129
ssg39
g43
sg47
L2334L
sg48
L2345L
sba(icfg
cfg
p130
(dp131
g5
(dp132
(iarch
basic_blk
p133
(dp134
g9
(lp135
(iarch
instruction
p136
(dp137
g13
L4093L
sg14
Nsg15
(lp138
S'A'
aS'#05h'
p139
asg18
S''
sg19
I0
sg20
I0
sg21
S'mov'
p140
sba(iarch
instruction
p141
(dp142
g13
L4095L
sg14
g3
sg15
(lp143
S'!sub_103F'
p144
asg18
S''
sg19
I0
sg20
I3
sg21
S'call'
p145
sba(iarch
instruction
p146
(dp147
g13
L4098L
sg14
Nsg15
(lp148
sg18
S''
sg19
I0
sg20
I0
sg21
S'ret'
p149
sbasg37
I0
sbg1
((ltRp150
ssg39
g43
sg47
L4093L
sg48
L4099L
sba(icfg
cfg
p151
(dp152
g5
(dp153
(iarch
basic_blk
p154
(dp155
g9
(lp156
(iarch
instruction
p157
(dp158
g13
L1705L
sg14
Nsg15
(lp159
S'flash_getbyte_reg.01h'
p160
asg18
S''
sg19
I0
sg20
I0
sg21
S'set1'
p161
sba(iarch
instruction
p162
(dp163
g13
L1708L
sg14
Nsg15
(lp164
sg18
S''
sg19
I0
sg20
I0
sg21
S'nop'
p165
sba(iarch
instruction
p166
(dp167
g13
L1709L
sg14
Nsg15
(lp168
sg18
S''
sg19
I0
sg20
I0
sg21
S'nop'
p169
sba(iarch
instruction
p170
(dp171
g13
L1710L
sg14
Nsg15
(lp172
sg18
S''
sg19
I0
sg20
I0
sg21
S'nop'
p173
sba(iarch
instruction
p174
(dp175
g13
L1711L
sg14
Nsg15
(lp176
sg18
S''
sg19
I0
sg20
I0
sg21
S'nop'
p177
sba(iarch
instruction
p178
(dp179
g13
L1712L
sg14
Nsg15
(lp180
sg18
S''
sg19
I0
sg20
I0
sg21
S'nop'
p181
sba(iarch
instruction
p182
(dp183
g13
L1713L
sg14
Nsg15
(lp184
sg18
S''
sg19
I0
sg20
I0
sg21
S'ret'
p185
sbasg37
I0
sbg1
((ltRp186
ssg39
g43
sg47
L1705L
sg48
L1714L
sba(icfg
cfg
p187
(dp188
g5
(dp189
(iarch
basic_blk
p190
(dp191
g9
(lp192
(iarch
instruction
p193
(dp194
g13
L4637L
sg14
Nsg15
(lp195
S'loc_1221'
p196
asg18
S''
sg19
I0
sg20
I1
sg21
S'bz'
p197
sbasg37
I0
sbg1
((lp198
(iarch
basic_blk
p199
(dp200
g9
(lp201
(iarch
instruction
p202
(dp203
g13
L4641L
sg14
Nsg15
(lp204
S'A'
aS'addr_M'
p205
asg18
S''
sg19
I0
sg20
I0
sg21
S'mov'
p206
sba(iarch
instruction
p207
(dp208
g13
L4643L
sg14
Nsg15
(lp209
S'A'
aS'end_addr_M'
p210
asg18
S''
sg19
I0
sg20
I0
sg21
S'cmp'
p211
sba(iarch
instruction
p212
(dp213
g13
L4645L
sg14
Nsg15
(lp214
S'loc_1233'
p215
asg18
S''
sg19
I0
sg20
I1
sg21
S'bc'
p216
sbasg37
I0
sba(iarch
basic_blk
p217
(dp218
g9
(lp219
(iarch
instruction
p220
(dp221
g13
L4639L
sg14
Nsg15
(lp222
S'loc_1235'
p223
asg18
S''
sg19
I0
sg20
I2
sg21
S'br'
p224
sbasg37
I0
sbatRp225
s(iarch
basic_blk
p226
(dp227
g9
(lp228
(iarch
instruction
p229
(dp230
g13
L4661L
sg14
Nsg15
(lp231
S'CY'
p232
asg18
S''
sg19
I0
sg20
I0
sg21
S'set1'
p233
sba(iarch
instruction
p234
(dp235
g13
L4662L
sg14
Nsg15
(lp236
sg18
S''
sg19
I0
sg20
I0
sg21
S'ret'
p237
sbasg37
I0
sbg1
((ltRp238
s(iarch
basic_blk
p239
(dp240
g9
(lp241
(iarch
instruction
p242
(dp243
g13
L4657L
sg14
Nsg15
(lp244
S'loc_1235'
p245
asg18
S''
sg19
I0
sg20
I1
sg21
S'bnz'
p246
sbasg37
I0
sbg1
((lp247
g226
a(iarch
basic_blk
p248
(dp249
g9
(lp250
(iarch
instruction
p251
(dp252
g13
L4659L
sg14
Nsg15
(lp253
S'CY'
p254
asg18
S''
sg19
I0
sg20
I0
sg21
S'clr1'
p255
sba(iarch
instruction
p256
(dp257
g13
L4660L
sg14
Nsg15
(lp258
sg18
S''
sg19
I0
sg20
I0
sg21
S'ret'
p259
sbasg37
I0
sbatRp260
s(iarch
basic_blk
p261
(dp262
g9
(lp263
(iarch
instruction
p264
(dp265
g13
L4647L
sg14
Nsg15
(lp266
S'loc_122B'
p267
asg18
S''
sg19
I0
sg20
I1
sg21
S'bz'
p268
sbasg37
I0
sbg1
((lp269
(iarch
basic_blk
p270
(dp271
g9
(lp272
(iarch
instruction
p273
(dp274
g13
L4651L
sg14
Nsg15
(lp275
S'A'
aS'addr_L'
p276
asg18
S''
sg19
I0
sg20
I0
sg21
S'mov'
p277
sba(iarch
instruction
p278
(dp279
g13
L4653L
sg14
Nsg15
(lp280
S'A'
aS'end_addr_L'
p281
asg18
S''
sg19
I0
sg20
I0
sg21
S'cmp'
p282
sba(iarch
instruction
p283
(dp284
g13
L4655L
sg14
Nsg15
(lp285
S'loc_1233'
p286
asg18
S''
sg19
I0
sg20
I1
sg21
S'bc'
p287
sbasg37
I0
sba(iarch
basic_blk
p288
(dp289
g9
(lp290
(iarch
instruction
p291
(dp292
g13
L4649L
sg14
Nsg15
(lp293
S'loc_1235'
p294
asg18
S''
sg19
I0
sg20
I2
sg21
S'br'
p295
sbasg37
I0
sbatRp296
sg288
g1
((lp297
g226
atRp298
s(iarch
basic_blk
p299
(dp300
g9
(lp301
(iarch
instruction
p302
(dp303
g13
L4622L
sg14
Nsg15
(lp304
S'addr_L'
p305
aS'#04h'
p306
asg18
S''
sg19
I0
sg20
I0
sg21
S'add'
p307
sba(iarch
instruction
p308
(dp309
g13
L4625L
sg14
Nsg15
(lp310
S'addr_M'
p311
aS'#00h'
p312
asg18
S''
sg19
I0
sg20
I0
sg21
S'addc'
p313
sba(iarch
instruction
p314
(dp315
g13
L4628L
sg14
Nsg15
(lp316
S'addr_H'
p317
aS'#00h'
p318
asg18
S''
sg19
I0
sg20
I0
sg21
S'addc'
p319
sba(iarch
instruction
p320
(dp321
g13
L4631L
sg14
Nsg15
(lp322
S'A'
aS'addr_H'
p323
asg18
S''
sg19
I0
sg20
I0
sg21
S'mov'
p324
sba(iarch
instruction
p325
(dp326
g13
L4633L
sg14
Nsg15
(lp327
S'A'
aS'end_addr_H'
p328
asg18
S''
sg19
I0
sg20
I0
sg21
S'cmp'
p329
sba(iarch
instruction
p330
(dp331
g13
L4635L
sg14
Nsg15
(lp332
S'loc_1233'
p333
asg18
S''
sg19
I0
sg20
I1
sg21
S'bc'
p334
sbasg37
I0
sbg1
((lp335
g248
ag190
atRp336
sg199
g1
((lp337
g248
ag261
atRp338
sg270
g1
((lp339
g248
ag239
atRp340
sg248
g1
((ltRp341
sg217
g1
((lp342
g226
atRp343
ssg39
g43
sg47
L4622L
sg48
L4663L
sba(icfg
cfg
p344
(dp345
g5
(dp346
(iarch
basic_blk
p347
(dp348
g9
(lp349
(iarch
instruction
p350
(dp351
g13
L3842L
sg14
Nsg15
(lp352
S'A'
aS'C'
asg18
S''
sg19
I0
sg20
I0
sg21
S'mov'
p353
sba(iarch
instruction
p354
(dp355
g13
L3843L
sg14
Nsg15
(lp356
S'!byte_FE97'
p357
aS'A'
asg18
S''
sg19
I0
sg20
I0
sg21
S'mov'
p358
sba(iarch
instruction
p359
(dp360
g13
L3846L
sg14
Nsg15
(lp361
S'DE'
p362
asg18
S''
sg19
I0
sg20
I0
sg21
S'push'
p363
sba(iarch
instruction
p364
(dp365
g13
L3847L
sg14
(icfg
cfg
p366
(dp367
g5
(dp368
(iarch
basic_blk
p369
(dp370
g9
(lp371
(iarch
instruction
p372
(dp373
g13
L4024L
sg14
Nsg15
(lp374
S'A'
aS'X'
asg18
S''
sg19
I0
sg20
I0
sg21
S'mov'
p375
sba(iarch
instruction
p376
(dp377
g13
L4025L
sg14
Nsg15
(lp378
S'tmp_len_byte'
p379
aS'A'
asg18
S''
sg19
I0
sg20
I0
sg21
S'mov'
p380
sba(iarch
instruction
p381
(dp382
g13
L4027L
sg14
Nsg15
(lp383
sg18
S''
sg19
I0
sg20
I0
sg21
S'ret'
p384
sbasg37
I0
sbg1
((ltRp385
s(iarch
basic_blk
p386
(dp387
g9
(lp388
(iarch
instruction
p389
(dp390
g13
L4018L
sg14
Nsg15
(lp391
S'A'
aS'[DE]'
p392
asg18
S''
sg19
I0
sg20
I0
sg21
S'mov'
p393
sba(iarch
instruction
p394
(dp395
g13
L4019L
sg14
Nsg15
(lp396
S'X'
aS'A'
asg18
S''
sg19
I0
sg20
I0
sg21
S'sub'
p397
sba(iarch
instruction
p398
(dp399
g13
L4021L
sg14
Nsg15
(lp400
S'DE'
p401
asg18
S''
sg19
I0
sg20
I0
sg21
S'incw'
p402
sba(iarch
instruction
p403
(dp404
g13
L4022L
sg14
Nsg15
(lp405
S'C'
aS'loc_FB2'
p406
asg18
S''
sg19
I0
sg20
I1
sg21
S'dbnz'
p407
sbasg37
I0
sbg1
((lp408
g369
ag386
atRp409
s(iarch
basic_blk
p410
(dp411
g9
(lp412
(iarch
instruction
p413
(dp414
g13
L4013L
sg14
Nsg15
(lp415
S'X'
aS'#00h'
p416
asg18
S''
sg19
I0
sg20
I0
sg21
S'mov'
p417
sba(iarch
instruction
p418
(dp419
g13
L4015L
sg14
Nsg15
(lp420
S'A'
aS'C'
asg18
S''
sg19
I0
sg20
I0
sg21
S'mov'
p421
sba(iarch
instruction
p422
(dp423
g13
L4016L
sg14
Nsg15
(lp424
S'X'
aS'A'
asg18
S''
sg19
I0
sg20
I0
sg21
S'sub'
p425
sbasg37
I0
sbg1
((lp426
g386
atRp427
ssg39
g43
sg47
L4013L
sg48
L4028L
sbsg15
(lp428
S'!sub_FAD'
p429
asg18
S''
sg19
I0
sg20
I3
sg21
S'call'
p430
sba(iarch
instruction
p431
(dp432
g13
L3850L
sg14
Nsg15
(lp433
S'DE'
p434
asg18
S''
sg19
I0
sg20
I0
sg21
S'pop'
p435
sba(iarch
instruction
p436
(dp437
g13
L3851L
sg14
Nsg15
(lp438
S'A'
aS'#02h'
p439
asg18
S''
sg19
I0
sg20
I0
sg21
S'mov'
p440
sba(iarch
instruction
p441
(dp442
g13
L3853L
sg14
(icfg
cfg
p443
(dp444
g5
(dp445
(iarch
basic_blk
p446
(dp447
g9
(lp448
(iarch
instruction
p449
(dp450
g13
L3623L
sg14
Nsg15
(lp451
S'byte_FE99.04h'
p452
aS'loc_E27'
p453
asg18
S''
sg19
I0
sg20
I1
sg21
S'bt'
p454
sbasg37
I0
sbg1
((lp455
(iarch
basic_blk
p456
(dp457
g9
(lp458
(iarch
instruction
p459
(dp460
g13
L3626L
sg14
Nsg15
(lp461
sg18
S''
sg19
I0
sg20
I0
sg21
S'ei'
p462
sba(iarch
instruction
p463
(dp464
g13
L3628L
sg14
Nsg15
(lp465
sg18
S''
sg19
I0
sg20
I0
sg21
S'ret'
p466
sbasg37
I0
sba(iarch
basic_blk
p467
(dp468
g9
(lp469
(iarch
instruction
p470
(dp471
g13
L3623L
sg14
Nsg15
(lp472
S'byte_FE99.04h'
p473
aS'loc_E27'
p474
asg18
S''
sg19
I0
sg20
I1
sg21
S'bt'
p475
sbasg37
I0
sbatRp476
s(iarch
basic_blk
p477
(dp478
g9
(lp479
(iarch
instruction
p480
(dp481
g13
L3606L
sg14
Nsg15
(lp482
sg18
S''
sg19
I0
sg20
I0
sg21
S'di'
p483
sba(iarch
instruction
p484
(dp485
g13
L3608L
sg14
Nsg15
(lp486
S'RB3_X'
p487
aS'A'
asg18
S''
sg19
I0
sg20
I0
sg21
S'mov'
p488
sba(iarch
instruction
p489
(dp490
g13
L3610L
sg14
Nsg15
(lp491
S'PSW'
p492
asg18
S''
sg19
I0
sg20
I0
sg21
S'push'
p493
sba(iarch
instruction
p494
(dp495
g13
L3611L
sg14
Nsg15
(lp496
S'RB2'
p497
asg18
S''
sg19
I0
sg20
I0
sg21
S'sel'
p498
sba(iarch
instruction
p499
(dp500
g13
L3613L
sg14
Nsg15
(lp501
S'[DE]'
p502
aS'A'
asg18
S''
sg19
I0
sg20
I0
sg21
S'mov'
p503
sba(iarch
instruction
p504
(dp505
g13
L3614L
sg14
Nsg15
(lp506
S'A'
aS'#0FFh'
p507
asg18
S''
sg19
I0
sg20
I0
sg21
S'mov'
p508
sba(iarch
instruction
p509
(dp510
g13
L3616L
sg14
Nsg15
(lp511
S'PSW'
p512
asg18
S''
sg19
I0
sg20
I0
sg21
S'pop'
p513
sba(iarch
instruction
p514
(dp515
g13
L3617L
sg14
Nsg15
(lp516
S'byte_FE99.04h'
p517
asg18
S''
sg19
I0
sg20
I0
sg21
S'set1'
p518
sba(iarch
instruction
p519
(dp520
g13
L3619L
sg14
Nsg15
(lp521
S'byte_FE98.03h'
p522
asg18
S''
sg19
I0
sg20
I0
sg21
S'clr1'
p523
sba(iarch
instruction
p524
(dp525
g13
L3621L
sg14
Nsg15
(lp526
sg18
S''
sg19
I0
sg20
I0
sg21
S'ei'
p527
sbasg37
I0
sbg1
((lp528
g446
atRp529
sg456
g1
((ltRp530
ssg39
g43
sg47
L3606L
sg48
L3629L
sbsg15
(lp531
S'!sub_E16'
p532
asg18
S''
sg19
I0
sg20
I3
sg21
S'call'
p533
sba(iarch
instruction
p534
(dp535
g13
L3856L
sg14
Nsg15
(lp536
S'A'
aS'byte_FE97'
p537
asg18
S''
sg19
I0
sg20
I0
sg21
S'mov'
p538
sba(iarch
instruction
p539
(dp540
g13
L3858L
sg14
g443
sg15
(lp541
S'!sub_E16'
p542
asg18
S''
sg19
I0
sg20
I3
sg21
S'call'
p543
sba(iarch
instruction
p544
(dp545
g13
L3861L
sg14
Nsg15
(lp546
S'A'
aS'!byte_FE97'
p547
asg18
S''
sg19
I0
sg20
I0
sg21
S'mov'
p548
sba(iarch
instruction
p549
(dp550
g13
L3864L
sg14
Nsg15
(lp551
S'C'
aS'A'
asg18
S''
sg19
I0
sg20
I0
sg21
S'mov'
p552
sbasg37
I0
sbg1
((lp553
(iarch
basic_blk
p554
(dp555
g9
(lp556
(iarch
instruction
p557
(dp558
g13
L3865L
sg14
Nsg15
(lp559
S'A'
aS'[DE]'
p560
asg18
S''
sg19
I0
sg20
I0
sg21
S'mov'
p561
sba(iarch
instruction
p562
(dp563
g13
L3866L
sg14
g443
sg15
(lp564
S'!sub_E16'
p565
asg18
S''
sg19
I0
sg20
I3
sg21
S'call'
p566
sba(iarch
instruction
p567
(dp568
g13
L3869L
sg14
Nsg15
(lp569
S'DE'
p570
asg18
S''
sg19
I0
sg20
I0
sg21
S'incw'
p571
sba(iarch
instruction
p572
(dp573
g13
L3870L
sg14
Nsg15
(lp574
S'C'
aS'loc_F19'
p575
asg18
S''
sg19
I0
sg20
I1
sg21
S'dbnz'
p576
sbasg37
I0
sbatRp577
s(iarch
basic_blk
p578
(dp579
g9
(lp580
(iarch
instruction
p581
(dp582
g13
L3872L
sg14
Nsg15
(lp583
S'A'
aS'tmp_len_byte'
p584
asg18
S''
sg19
I0
sg20
I0
sg21
S'mov'
p585
sba(iarch
instruction
p586
(dp587
g13
L3874L
sg14
g443
sg15
(lp588
S'!sub_E16'
p589
asg18
S''
sg19
I0
sg20
I3
sg21
S'call'
p590
sba(iarch
instruction
p591
(dp592
g13
L3877L
sg14
Nsg15
(lp593
sg18
S''
sg19
I0
sg20
I0
sg21
S'ret'
p594
sbasg37
I0
sbg1
((ltRp595
sg554
g1
((lp596
g554
ag578
atRp597
ssg39
g43
sg47
L3842L
sg48
L3878L
sba(icfg
cfg
p598
(dp599
g5
(dp600
(iarch
basic_blk
p601
(dp602
g9
(lp603
(iarch
instruction
p604
(dp605
g13
L1714L
sg14
(icfg
cfg
p606
(dp607
g5
(dp608
(iarch
basic_blk
p609
(dp610
g9
(lp611
(iarch
instruction
p612
(dp613
g13
L1696L
sg14
Nsg15
(lp614
S'flash_getbyte_reg.01h'
p615
asg18
S''
sg19
I0
sg20
I0
sg21
S'clr1'
p616
sba(iarch
instruction
p617
(dp618
g13
L1699L
sg14
Nsg15
(lp619
sg18
S''
sg19
I0
sg20
I0
sg21
S'nop'
p620
sba(iarch
instruction
p621
(dp622
g13
L1700L
sg14
Nsg15
(lp623
sg18
S''
sg19
I0
sg20
I0
sg21
S'nop'
p624
sba(iarch
instruction
p625
(dp626
g13
L1701L
sg14
Nsg15
(lp627
sg18
S''
sg19
I0
sg20
I0
sg21
S'nop'
p628
sba(iarch
instruction
p629
(dp630
g13
L1702L
sg14
Nsg15
(lp631
sg18
S''
sg19
I0
sg20
I0
sg21
S'nop'
p632
sba(iarch
instruction
p633
(dp634
g13
L1703L
sg14
Nsg15
(lp635
sg18
S''
sg19
I0
sg20
I0
sg21
S'nop'
p636
sba(iarch
instruction
p637
(dp638
g13
L1704L
sg14
Nsg15
(lp639
sg18
S''
sg19
I0
sg20
I0
sg21
S'ret'
p640
sbasg37
I0
sbg1
((ltRp641
ssg39
g43
sg47
L1696L
sg48
L1705L
sbsg15
(lp642
S'!sub_6A0'
p643
asg18
S''
sg19
I0
sg20
I3
sg21
S'call'
p644
sba(iarch
instruction
p645
(dp646
g13
L1717L
sg14
g151
sg15
(lp647
S'!set_flashreg'
p648
asg18
S''
sg19
I0
sg20
I3
sg21
S'call'
p649
sba(iarch
instruction
p650
(dp651
g13
L1720L
sg14
Nsg15
(lp652
sg18
S''
sg19
I0
sg20
I0
sg21
S'ret'
p653
sbasg37
I0
sbg1
((ltRp654
ssg39
g43
sg47
L1714L
sg48
L1721L
sba(icfg
cfg
p655
(dp656
g5
(dp657
(iarch
basic_blk
p658
(dp659
g9
(lp660
(iarch
instruction
p661
(dp662
g13
L4073L
sg14
Nsg15
(lp663
S'A'
aS'#0FFh'
p664
asg18
S''
sg19
I0
sg20
I0
sg21
S'mov'
p665
sba(iarch
instruction
p666
(dp667
g13
L4075L
sg14
g3
sg15
(lp668
S'!sub_103F'
p669
asg18
S''
sg19
I0
sg20
I3
sg21
S'call'
p670
sba(iarch
instruction
p671
(dp672
g13
L4078L
sg14
Nsg15
(lp673
sg18
S''
sg19
I0
sg20
I0
sg21
S'ret'
p674
sbasg37
I0
sbg1
((ltRp675
ssg39
g43
sg47
L4073L
sg48
L4079L
sba(icfg
cfg
p676
(dp677
g5
(dp678
(iarch
basic_blk
p679
(dp680
g9
(lp681
(iarch
instruction
p682
(dp683
g13
L3709L
sg14
(icfg
cfg
p684
(dp685
g5
(dp686
(iarch
basic_blk
p687
(dp688
g9
(lp689
(iarch
instruction
p690
(dp691
g13
L3633L
sg14
Nsg15
(lp692
S'byte_FE98.03h'
p693
asg18
S''
sg19
I0
sg20
I0
sg21
S'clr1'
p694
sba(iarch
instruction
p695
(dp696
g13
L3635L
sg14
Nsg15
(lp697
sg18
S''
sg19
I0
sg20
I0
sg21
S'ret'
p698
sbasg37
I0
sbg1
((ltRp699
s(iarch
basic_blk
p700
(dp701
g9
(lp702
(iarch
instruction
p703
(dp704
g13
L3629L
sg14
Nsg15
(lp705
S'byte_FE98.03h'
p706
aS'recv_byte'
p707
asg18
S''
sg19
I0
sg20
I1
sg21
S'bf'
p708
sbasg37
I0
sbg1
((lp709
g687
a(iarch
basic_blk
p710
(dp711
g9
(lp712
(iarch
instruction
p713
(dp714
g13
L3629L
sg14
Nsg15
(lp715
S'byte_FE98.03h'
p716
aS'recv_byte'
p717
asg18
S''
sg19
I0
sg20
I1
sg21
S'bf'
p718
sbasg37
I0
sbatRp719
ssg39
g43
sg47
L3629L
sg48
L3636L
sbsg15
(lp720
S'!recv_byte'
p721
asg18
S''
sg19
I0
sg20
I3
sg21
S'call'
p722
sba(iarch
instruction
p723
(dp724
g13
L3712L
sg14
Nsg15
(lp725
S'A'
aS'rx_byte'
p726
asg18
S''
sg19
I0
sg20
I0
sg21
S'mov'
p727
sba(iarch
instruction
p728
(dp729
g13
L3714L
sg14
Nsg15
(lp730
S'byte_FE94'
p731
aS'A'
asg18
S''
sg19
I0
sg20
I0
sg21
S'mov'
p732
sba(iarch
instruction
p733
(dp734
g13
L3716L
sg14
Nsg15
(lp735
S'A'
aS'#03h'
p736
asg18
S''
sg19
I0
sg20
I0
sg21
S'cmp'
p737
sba(iarch
instruction
p738
(dp739
g13
L3718L
sg14
Nsg15
(lp740
S'loc_E90'
p741
asg18
S''
sg19
I0
sg20
I1
sg21
S'bnz'
p742
sbasg37
I0
sbg1
((lp743
(iarch
basic_blk
p744
(dp745
g9
(lp746
(iarch
instruction
p747
(dp748
g13
L3720L
sg14
Nsg15
(lp749
S'A'
aS'#06h'
p750
asg18
S''
sg19
I0
sg20
I0
sg21
S'mov'
p751
sba(iarch
instruction
p752
(dp753
g13
L3722L
sg14
Nsg15
(lp754
S'CY'
p755
asg18
S''
sg19
I0
sg20
I0
sg21
S'clr1'
p756
sba(iarch
instruction
p757
(dp758
g13
L3723L
sg14
Nsg15
(lp759
sg18
S''
sg19
I0
sg20
I0
sg21
S'ret'
p760
sbasg37
I0
sba(iarch
basic_blk
p761
(dp762
g9
(lp763
(iarch
instruction
p764
(dp765
g13
L3728L
sg14
Nsg15
(lp766
S'A'
aS'#15h'
p767
asg18
S''
sg19
I0
sg20
I0
sg21
S'mov'
p768
sba(iarch
instruction
p769
(dp770
g13
L3730L
sg14
Nsg15
(lp771
S'CY'
p772
asg18
S''
sg19
I0
sg20
I0
sg21
S'set1'
p773
sba(iarch
instruction
p774
(dp775
g13
L3731L
sg14
Nsg15
(lp776
sg18
S''
sg19
I0
sg20
I0
sg21
S'ret'
p777
sbasg37
I0
sbatRp778
s(iarch
basic_blk
p779
(dp780
g9
(lp781
(iarch
instruction
p782
(dp783
g13
L3639L
sg14
g684
sg15
(lp784
S'!recv_byte'
p785
asg18
S''
sg19
I0
sg20
I3
sg21
S'call'
p786
sba(iarch
instruction
p787
(dp788
g13
L3642L
sg14
Nsg15
(lp789
S'A'
aS'rx_byte'
p790
asg18
S''
sg19
I0
sg20
I0
sg21
S'mov'
p791
sba(iarch
instruction
p792
(dp793
g13
L3644L
sg14
Nsg15
(lp794
S'A'
aS'#01h'
p795
asg18
S''
sg19
I0
sg20
I0
sg21
S'cmp'
p796
sba(iarch
instruction
p797
(dp798
g13
L3646L
sg14
Nsg15
(lp799
S'loc_E37'
p800
asg18
S''
sg19
I0
sg20
I1
sg21
S'bnz'
p801
sbasg37
I0
sbg1
((lp802
g779
a(iarch
basic_blk
p803
(dp804
g9
(lp805
(iarch
instruction
p806
(dp807
g13
L3648L
sg14
Nsg15
(lp808
S'SOH_STX_byte'
p809
aS'A'
asg18
S''
sg19
I0
sg20
I0
sg21
S'mov'
p810
sba(iarch
instruction
p811
(dp812
g13
L3650L
sg14
g684
sg15
(lp813
S'!recv_byte'
p814
asg18
S''
sg19
I0
sg20
I3
sg21
S'call'
p815
sba(iarch
instruction
p816
(dp817
g13
L3653L
sg14
Nsg15
(lp818
S'A'
aS'rx_byte'
p819
asg18
S''
sg19
I0
sg20
I0
sg21
S'mov'
p820
sba(iarch
instruction
p821
(dp822
g13
L3655L
sg14
Nsg15
(lp823
S'!len_byte'
p824
aS'A'
asg18
S''
sg19
I0
sg20
I0
sg21
S'mov'
p825
sba(iarch
instruction
p826
(dp827
g13
L3658L
sg14
Nsg15
(lp828
S'byte_FE99.05h'
p829
aS'loc_E52'
p830
asg18
S''
sg19
I0
sg20
I1
sg21
S'bf'
p831
sbasg37
I0
sbatRp832
s(iarch
basic_blk
p833
(dp834
g9
(lp835
(iarch
instruction
p836
(dp837
g13
L3662L
sg14
Nsg15
(lp838
S'A'
aS'#01h'
p839
asg18
S''
sg19
I0
sg20
I0
sg21
S'cmp'
p840
sba(iarch
instruction
p841
(dp842
g13
L3664L
sg14
Nsg15
(lp843
S'loc_E37'
p844
asg18
S''
sg19
I0
sg20
I1
sg21
S'bnz'
p845
sbasg37
I0
sbg1
((lp846
(iarch
basic_blk
p847
(dp848
g9
(lp849
(iarch
instruction
p850
(dp851
g13
L3666L
sg14
Nsg15
(lp852
S'X'
aS'A'
asg18
S''
sg19
I0
sg20
I0
sg21
S'mov'
p853
sba(iarch
instruction
p854
(dp855
g13
L3667L
sg14
Nsg15
(lp856
S'A'
aS'tmp_len_byte'
p857
asg18
S''
sg19
I0
sg20
I0
sg21
S'mov'
p858
sba(iarch
instruction
p859
(dp860
g13
L3669L
sg14
Nsg15
(lp861
S'A'
aS'X'
asg18
S''
sg19
I0
sg20
I0
sg21
S'sub'
p862
sba(iarch
instruction
p863
(dp864
g13
L3671L
sg14
Nsg15
(lp865
S'tmp_len_byte'
p866
aS'A'
asg18
S''
sg19
I0
sg20
I0
sg21
S'mov'
p867
sba(iarch
instruction
p868
(dp869
g13
L3673L
sg14
Nsg15
(lp870
S'A'
aS'!len_byte'
p871
asg18
S''
sg19
I0
sg20
I0
sg21
S'mov'
p872
sba(iarch
instruction
p873
(dp874
g13
L3676L
sg14
Nsg15
(lp875
S'C'
aS'A'
asg18
S''
sg19
I0
sg20
I0
sg21
S'mov'
p876
sba(iarch
instruction
p877
(dp878
g13
L3677L
sg14
Nsg15
(lp879
S'HL'
p880
aS'#msg_buffer'
p881
asg18
S''
sg19
I0
sg20
I0
sg21
S'movw'
p882
sbasg37
I0
sbag779
atRp883
s(iarch
basic_blk
p884
(dp885
g9
(lp886
(iarch
instruction
p887
(dp888
g13
L3680L
sg14
g684
sg15
(lp889
S'!recv_byte'
p890
asg18
S''
sg19
I0
sg20
I3
sg21
S'call'
p891
sba(iarch
instruction
p892
(dp893
g13
L3683L
sg14
Nsg15
(lp894
S'A'
aS'rx_byte'
p895
asg18
S''
sg19
I0
sg20
I0
sg21
S'mov'
p896
sba(iarch
instruction
p897
(dp898
g13
L3685L
sg14
Nsg15
(lp899
S'[HL]'
p900
aS'A'
asg18
S''
sg19
I0
sg20
I0
sg21
S'mov'
p901
sba(iarch
instruction
p902
(dp903
g13
L3686L
sg14
Nsg15
(lp904
S'X'
aS'A'
asg18
S''
sg19
I0
sg20
I0
sg21
S'mov'
p905
sba(iarch
instruction
p906
(dp907
g13
L3687L
sg14
Nsg15
(lp908
S'A'
aS'tmp_len_byte'
p909
asg18
S''
sg19
I0
sg20
I0
sg21
S'mov'
p910
sba(iarch
instruction
p911
(dp912
g13
L3689L
sg14
Nsg15
(lp913
S'A'
aS'X'
asg18
S''
sg19
I0
sg20
I0
sg21
S'sub'
p914
sba(iarch
instruction
p915
(dp916
g13
L3691L
sg14
Nsg15
(lp917
S'tmp_len_byte'
p918
aS'A'
asg18
S''
sg19
I0
sg20
I0
sg21
S'mov'
p919
sba(iarch
instruction
p920
(dp921
g13
L3693L
sg14
Nsg15
(lp922
S'HL'
p923
asg18
S''
sg19
I0
sg20
I0
sg21
S'incw'
p924
sba(iarch
instruction
p925
(dp926
g13
L3694L
sg14
Nsg15
(lp927
S'C'
aS'loc_E60'
p928
asg18
S''
sg19
I0
sg20
I1
sg21
S'dbnz'
p929
sbasg37
I0
sbg1
((lp930
g884
a(iarch
basic_blk
p931
(dp932
g9
(lp933
(iarch
instruction
p934
(dp935
g13
L3696L
sg14
g684
sg15
(lp936
S'!recv_byte'
p937
asg18
S''
sg19
I0
sg20
I3
sg21
S'call'
p938
sba(iarch
instruction
p939
(dp940
g13
L3699L
sg14
Nsg15
(lp941
S'A'
aS'rx_byte'
p942
asg18
S''
sg19
I0
sg20
I0
sg21
S'mov'
p943
sba(iarch
instruction
p944
(dp945
g13
L3701L
sg14
Nsg15
(lp946
S'!ETX_byte'
p947
aS'A'
asg18
S''
sg19
I0
sg20
I0
sg21
S'mov'
p948
sba(iarch
instruction
p949
(dp950
g13
L3704L
sg14
Nsg15
(lp951
S'A'
aS'!tmp_len_byte'
p952
asg18
S''
sg19
I0
sg20
I0
sg21
S'cmp'
p953
sba(iarch
instruction
p954
(dp955
g13
L3707L
sg14
Nsg15
(lp956
S'loc_E8C'
p957
asg18
S''
sg19
I0
sg20
I1
sg21
S'bnz'
p958
sbasg37
I0
sbatRp959
sg744
g1
((ltRp960
s(iarch
basic_blk
p961
(dp962
g9
(lp963
(iarch
instruction
p964
(dp965
g13
L3636L
sg14
Nsg15
(lp966
S'tmp_len_byte'
p967
aS'#00h'
p968
asg18
S''
sg19
I0
sg20
I0
sg21
S'mov'
p969
sbasg37
I0
sbg1
((lp970
g779
atRp971
sg931
g1
((lp972
g679
a(iarch
basic_blk
p973
(dp974
g9
(lp975
(iarch
instruction
p976
(dp977
g13
L3724L
sg14
Nsg15
(lp978
S'A'
aS'#07h'
p979
asg18
S''
sg19
I0
sg20
I0
sg21
S'mov'
p980
sba(iarch
instruction
p981
(dp982
g13
L3726L
sg14
Nsg15
(lp983
S'CY'
p984
asg18
S''
sg19
I0
sg20
I0
sg21
S'set1'
p985
sba(iarch
instruction
p986
(dp987
g13
L3727L
sg14
Nsg15
(lp988
sg18
S''
sg19
I0
sg20
I0
sg21
S'ret'
p989
sbasg37
I0
sbatRp990
sg847
g1
((lp991
g884
atRp992
sg803
g1
((lp993
g847
ag833
atRp994
sg761
g1
((ltRp995
sg973
g1
((ltRp996
ssg39
g43
sg47
L3636L
sg48
L3732L
sbag606
ag684
a(icfg
cfg
p997
(dp998
g5
(dp999
(iarch
basic_blk
p1000
(dp1001
g9
(lp1002
(iarch
instruction
p1003
(dp1004
g13
L4904L
sg14
Nsg15
(lp1005
S'CY'
p1006
asg18
S''
sg19
I0
sg20
I0
sg21
S'clr1'
p1007
sba(iarch
instruction
p1008
(dp1009
g13
L4905L
sg14
Nsg15
(lp1010
sg18
S''
sg19
I0
sg20
I0
sg21
S'ret'
p1011
sbasg37
I0
sbg1
((ltRp1012
s(iarch
basic_blk
p1013
(dp1014
g9
(lp1015
(iarch
instruction
p1016
(dp1017
g13
L4898L
sg14
Nsg15
(lp1018
S'MCM.02h'
p1019
aS'loc_1328'
p1020
asg18
S''
sg19
I0
sg20
I1
sg21
S'bt'
p1021
sbasg37
I0
sbg1
((lp1022
g1000
a(iarch
basic_blk
p1023
(dp1024
g9
(lp1025
(iarch
instruction
p1026
(dp1027
g13
L4902L
sg14
Nsg15
(lp1028
S'CY'
p1029
asg18
S''
sg19
I0
sg20
I0
sg21
S'set1'
p1030
sba(iarch
instruction
p1031
(dp1032
g13
L4903L
sg14
Nsg15
(lp1033
sg18
S''
sg19
I0
sg20
I0
sg21
S'ret'
p1034
sbasg37
I0
sbatRp1035
sg1023
g1
((ltRp1036
s(iarch
basic_blk
p1037
(dp1038
g9
(lp1039
(iarch
instruction
p1040
(dp1041
g13
L4889L
sg14
g57
sg15
(lp1042
S'!chk_flash_mode'
p1043
asg18
S''
sg19
I0
sg20
I3
sg21
S'call'
p1044
sba(iarch
instruction
p1045
(dp1046
g13
L4892L
sg14
Nsg15
(lp1047
S'loc_1328'
p1048
asg18
S''
sg19
I0
sg20
I1
sg21
S'bz'
p1049
sbasg37
I0
sbg1
((lp1050
g1000
a(iarch
basic_blk
p1051
(dp1052
g9
(lp1053
(iarch
instruction
p1054
(dp1055
g13
L4894L
sg14
Nsg15
(lp1056
S'MCM.00h'
p1057
aS'loc_1326'
p1058
asg18
S''
sg19
I0
sg20
I1
sg21
S'bf'
p1059
sbasg37
I0
sbatRp1060
sg1051
g1
((lp1061
g1023
ag1013
atRp1062
ssg39
g43
sg47
L4889L
sg48
L4906L
sba(icfg
cfg
p1063
(dp1064
g5
(dp1065
(iarch
basic_blk
p1066
(dp1067
g9
(lp1068
(iarch
instruction
p1069
(dp1070
g13
L3976L
sg14
Nsg15
(lp1071
S'HL'
p1072
aS'#msg_buffer'
p1073
asg18
S''
sg19
I0
sg20
I0
sg21
S'movw'
p1074
sba(iarch
instruction
p1075
(dp1076
g13
L3979L
sg14
Nsg15
(lp1077
S'A'
aS'[HL]'
p1078
asg18
S''
sg19
I0
sg20
I0
sg21
S'mov'
p1079
sba(iarch
instruction
p1080
(dp1081
g13
L3980L
sg14
Nsg15
(lp1082
S'A'
aS'#70h'
p1083
asg18
S''
sg19
I0
sg20
I0
sg21
S'cmp'
p1084
sba(iarch
instruction
p1085
(dp1086
g13
L3982L
sg14
Nsg15
(lp1087
S'loc_F92'
p1088
asg18
S''
sg19
I0
sg20
I1
sg21
S'bz'
p1089
sbasg37
I0
sbg1
((lp1090
(iarch
basic_blk
p1091
(dp1092
g9
(lp1093
(iarch
instruction
p1094
(dp1095
g13
L3986L
sg14
Nsg15
(lp1096
S'DE'
p1097
aS'#d_resp_0'
p1098
asg18
S''
sg19
I0
sg20
I0
sg21
S'movw'
p1099
sba(iarch
instruction
p1100
(dp1101
g13
L3989L
sg14
Nsg15
(lp1102
S'A'
aS'!byte_FE14'
p1103
asg18
S''
sg19
I0
sg20
I0
sg21
S'mov'
p1104
sba(iarch
instruction
p1105
(dp1106
g13
L3992L
sg14
Nsg15
(lp1107
S'C'
aS'A'
asg18
S''
sg19
I0
sg20
I0
sg21
S'mov'
p1108
sba(iarch
instruction
p1109
(dp1110
g13
L3993L
sg14
(icfg
cfg
p1111
(dp1112
g5
(dp1113
(iarch
basic_blk
p1114
(dp1115
g9
(lp1116
(iarch
instruction
p1117
(dp1118
g13
L3833L
sg14
g344
sg15
(lp1119
S'!sub_F02'
p1120
asg18
S''
sg19
I0
sg20
I3
sg21
S'call'
p1121
sba(iarch
instruction
p1122
(dp1123
g13
L3836L
sg14
Nsg15
(lp1124
S'A'
aS'#03h'
p1125
asg18
S''
sg19
I0
sg20
I0
sg21
S'mov'
p1126
sba(iarch
instruction
p1127
(dp1128
g13
L3838L
sg14
g443
sg15
(lp1129
S'!sub_E16'
p1130
asg18
S''
sg19
I0
sg20
I3
sg21
S'call'
p1131
sba(iarch
instruction
p1132
(dp1133
g13
L3841L
sg14
Nsg15
(lp1134
sg18
S''
sg19
I0
sg20
I0
sg21
S'ret'
p1135
sbasg37
I0
sbg1
((ltRp1136
ssg39
g43
sg47
L3833L
sg48
L3842L
sbsg15
(lp1137
S'!sub_EF9'
p1138
asg18
S''
sg19
I0
sg20
I3
sg21
S'call'
p1139
sba(iarch
instruction
p1140
(dp1141
g13
L3996L
sg14
Nsg15
(lp1142
S'byte_FE99.01h'
p1143
asg18
S''
sg19
I0
sg20
I0
sg21
S'set1'
p1144
sba(iarch
instruction
p1145
(dp1146
g13
L3998L
sg14
Nsg15
(lp1147
S'CY'
p1148
asg18
S''
sg19
I0
sg20
I0
sg21
S'clr1'
p1149
sba(iarch
instruction
p1150
(dp1151
g13
L3999L
sg14
Nsg15
(lp1152
sg18
S''
sg19
I0
sg20
I0
sg21
S'ret'
p1153
sbasg37
I0
sba(iarch
basic_blk
p1154
(dp1155
g9
(lp1156
(iarch
instruction
p1157
(dp1158
g13
L3984L
sg14
Nsg15
(lp1159
S'loc_F7A'
p1160
asg18
S''
sg19
I0
sg20
I2
sg21
S'br'
p1161
sbasg37
I0
sbatRp1162
s(iarch
basic_blk
p1163
(dp1164
g9
(lp1165
(iarch
instruction
p1166
(dp1167
g13
L4000L
sg14
Nsg15
(lp1168
S'byte_FE99.01h'
p1169
asg18
S''
sg19
I0
sg20
I0
sg21
S'clr1'
p1170
sbasg37
I0
sbg1
((lp1171
(iarch
basic_blk
p1172
(dp1173
g9
(lp1174
(iarch
instruction
p1175
(dp1176
g13
L4002L
sg14
Nsg15
(lp1177
S'byte_FE98.01h'
p1178
aS'loc_FA2'
p1179
asg18
S''
sg19
I0
sg20
I1
sg21
S'bt'
p1180
sbasg37
I0
sbatRp1181
s(iarch
basic_blk
p1182
(dp1183
g9
(lp1184
(iarch
instruction
p1185
(dp1186
g13
L3957L
sg14
Nsg15
(lp1187
S'byte_FE98.01h'
p1188
aS'loc_FA0'
p1189
asg18
S''
sg19
I0
sg20
I1
sg21
S'bt'
p1190
sbasg37
I0
sbg1
((lp1191
(iarch
basic_blk
p1192
(dp1193
g9
(lp1194
(iarch
instruction
p1195
(dp1196
g13
L3960L
sg14
Nsg15
(lp1197
S'byte_FE99.01h'
p1198
asg18
S''
sg19
I0
sg20
I0
sg21
S'clr1'
p1199
sbasg37
I0
sbag1163
atRp1200
s(iarch
basic_blk
p1201
(dp1202
g9
(lp1203
(iarch
instruction
p1204
(dp1205
g13
L3974L
sg14
Nsg15
(lp1206
S'loc_F7A'
p1207
asg18
S''
sg19
I0
sg20
I2
sg21
S'br'
p1208
sbasg37
I0
sbg1
((lp1209
(iarch
basic_blk
p1210
(dp1211
g9
(lp1212
(iarch
instruction
p1213
(dp1214
g13
L3962L
sg14
Nsg15
(lp1215
S'byte_FE99.05h'
p1216
asg18
S''
sg19
I0
sg20
I0
sg21
S'set1'
p1217
sba(iarch
instruction
p1218
(dp1219
g13
L3964L
sg14
g49
sg15
(lp1220
S'!sub_91E'
p1221
asg18
S''
sg19
I0
sg20
I3
sg21
S'call'
p1222
sba(iarch
instruction
p1223
(dp1224
g13
L3967L
sg14
g676
sg15
(lp1225
S'!recv_cmd_frame'
p1226
asg18
S''
sg19
I0
sg20
I3
sg21
S'call'
p1227
sba(iarch
instruction
p1228
(dp1229
g13
L3970L
sg14
Nsg15
(lp1230
S'byte_FE99.05h'
p1231
asg18
S''
sg19
I0
sg20
I0
sg21
S'clr1'
p1232
sba(iarch
instruction
p1233
(dp1234
g13
L3972L
sg14
Nsg15
(lp1235
S'loc_F88'
p1236
asg18
S''
sg19
I0
sg20
I1
sg21
S'bnc'
p1237
sbasg37
I0
sbatRp1238
sg1172
g1
((lp1239
(iarch
basic_blk
p1240
(dp1241
g9
(lp1242
(iarch
instruction
p1243
(dp1244
g13
L4005L
sg14
Nsg15
(lp1245
S'byte_FE99.07h'
p1246
aS'loc_F7A'
p1247
asg18
S''
sg19
I0
sg20
I1
sg21
S'btclr'
p1248
sbasg37
I0
sba(iarch
basic_blk
p1249
(dp1250
g9
(lp1251
(iarch
instruction
p1252
(dp1253
g13
L4002L
sg14
Nsg15
(lp1254
S'byte_FE98.01h'
p1255
aS'loc_FA2'
p1256
asg18
S''
sg19
I0
sg20
I1
sg21
S'bt'
p1257
sbasg37
I0
sbatRp1258
sg1154
g1
((lp1259
g1210
atRp1260
sg1192
g1
((lp1261
g1210
atRp1262
sg1210
g1
((lp1263
g1066
ag1201
atRp1264
s(iarch
basic_blk
p1265
(dp1266
g9
(lp1267
(iarch
instruction
p1268
(dp1269
g13
L3954L
sg14
Nsg15
(lp1270
S'byte_FE98.04h'
p1271
aS'loc_F92'
p1272
asg18
S''
sg19
I0
sg20
I1
sg21
S'bt'
p1273
sbasg37
I0
sbg1
((lp1274
g1091
ag1182
atRp1275
sg1091
g1
((ltRp1276
s(iarch
basic_blk
p1277
(dp1278
g9
(lp1279
(iarch
instruction
p1280
(dp1281
g13
L4009L
sg14
Nsg15
(lp1282
S'byte_FE99.01h'
p1283
asg18
S''
sg19
I0
sg20
I0
sg21
S'set1'
p1284
sba(iarch
instruction
p1285
(dp1286
g13
L4011L
sg14
Nsg15
(lp1287
S'CY'
p1288
asg18
S''
sg19
I0
sg20
I0
sg21
S'clr1'
p1289
sba(iarch
instruction
p1290
(dp1291
g13
L4012L
sg14
Nsg15
(lp1292
sg18
S''
sg19
I0
sg20
I0
sg21
S'ret'
p1293
sbasg37
I0
sbg1
((ltRp1294
sg1240
g1
((lp1295
g1210
ag1277
atRp1296
ssg39
g43
sg47
L3954L
sg48
L4013L
sbag57
a(icfg
cfg
p1297
(dp1298
g5
(dp1299
(iarch
basic_blk
p1300
(dp1301
g9
(lp1302
(iarch
instruction
p1303
(dp1304
g13
L4028L
sg14
g57
sg15
(lp1305
S'!chk_flash_mode'
p1306
asg18
S''
sg19
I0
sg20
I3
sg21
S'call'
p1307
sba(iarch
instruction
p1308
(dp1309
g13
L4031L
sg14
Nsg15
(lp1310
S'loc_FC8'
p1311
asg18
S''
sg19
I0
sg20
I1
sg21
S'bnz'
p1312
sbasg37
I0
sbg1
((lp1313
(iarch
basic_blk
p1314
(dp1315
g9
(lp1316
(iarch
instruction
p1317
(dp1318
g13
L4040L
sg14
Nsg15
(lp1319
S'B'
aS'#00h'
p1320
asg18
S''
sg19
I0
sg20
I0
sg21
S'mov'
p1321
sbasg37
I0
sba(iarch
basic_blk
p1322
(dp1323
g9
(lp1324
(iarch
instruction
p1325
(dp1326
g13
L4033L
sg14
Nsg15
(lp1327
S'A'
aS'#06h'
p1328
asg18
S''
sg19
I0
sg20
I0
sg21
S'mov'
p1329
sba(iarch
instruction
p1330
(dp1331
g13
L4035L
sg14
g3
sg15
(lp1332
S'!sub_103F'
p1333
asg18
S''
sg19
I0
sg20
I3
sg21
S'call'
p1334
sba(iarch
instruction
p1335
(dp1336
g13
L4038L
sg14
Nsg15
(lp1337
S'locret_FCA'
p1338
asg18
S''
sg19
I0
sg20
I2
sg21
S'br'
p1339
sbasg37
I0
sbatRp1340
sg1314
g1
((lp1341
(iarch
basic_blk
p1342
(dp1343
g9
(lp1344
(iarch
instruction
p1345
(dp1346
g13
L4042L
sg14
Nsg15
(lp1347
sg18
S''
sg19
I0
sg20
I0
sg21
S'ret'
p1348
sbasg37
I0
sbatRp1349
sg1322
g1
((lp1350
(iarch
basic_blk
p1351
(dp1352
g9
(lp1353
(iarch
instruction
p1354
(dp1355
g13
L4042L
sg14
Nsg15
(lp1356
sg18
S''
sg19
I0
sg20
I0
sg21
S'ret'
p1357
sbasg37
I0
sbatRp1358
sg1351
g1
((ltRp1359
ssg39
g43
sg47
L4028L
sg48
L4043L
sba(icfg
cfg
p1360
(dp1361
g5
(dp1362
(iarch
basic_blk
p1363
(dp1364
g9
(lp1365
(iarch
instruction
p1366
(dp1367
g13
L2146L
sg14
Nsg15
(lp1368
S'A'
aS'end_addr_M'
p1369
asg18
S''
sg19
I0
sg20
I0
sg21
S'mov'
p1370
sba(iarch
instruction
p1371
(dp1372
g13
L2148L
sg14
Nsg15
(lp1373
S'A'
aS'max_flash_addr_M'
p1374
asg18
S''
sg19
I0
sg20
I0
sg21
S'cmp'
p1375
sba(iarch
instruction
p1376
(dp1377
g13
L2150L
sg14
Nsg15
(lp1378
S'loc_872'
p1379
asg18
S''
sg19
I0
sg20
I1
sg21
S'bc'
p1380
sbasg37
I0
sbg1
((lp1381
(iarch
basic_blk
p1382
(dp1383
g9
(lp1384
(iarch
instruction
p1385
(dp1386
g13
L2152L
sg14
Nsg15
(lp1387
S'loc_874'
p1388
asg18
S''
sg19
I0
sg20
I1
sg21
S'bnz'
p1389
sbasg37
I0
sba(iarch
basic_blk
p1390
(dp1391
g9
(lp1392
(iarch
instruction
p1393
(dp1394
g13
L2162L
sg14
Nsg15
(lp1395
S'CY'
p1396
asg18
S''
sg19
I0
sg20
I0
sg21
S'clr1'
p1397
sba(iarch
instruction
p1398
(dp1399
g13
L2163L
sg14
Nsg15
(lp1400
sg18
S''
sg19
I0
sg20
I0
sg21
S'ret'
p1401
sbasg37
I0
sbatRp1402
s(iarch
basic_blk
p1403
(dp1404
g9
(lp1405
(iarch
instruction
p1406
(dp1407
g13
L2160L
sg14
Nsg15
(lp1408
S'loc_874'
p1409
asg18
S''
sg19
I0
sg20
I1
sg21
S'bnz'
p1410
sbasg37
I0
sbg1
((lp1411
(iarch
basic_blk
p1412
(dp1413
g9
(lp1414
(iarch
instruction
p1415
(dp1416
g13
L2164L
sg14
Nsg15
(lp1417
S'CY'
p1418
asg18
S''
sg19
I0
sg20
I0
sg21
S'set1'
p1419
sba(iarch
instruction
p1420
(dp1421
g13
L2165L
sg14
Nsg15
(lp1422
sg18
S''
sg19
I0
sg20
I0
sg21
S'ret'
p1423
sbasg37
I0
sbag1390
atRp1424
sg1382
g1
((lp1425
g1412
a(iarch
basic_blk
p1426
(dp1427
g9
(lp1428
(iarch
instruction
p1429
(dp1430
g13
L2154L
sg14
Nsg15
(lp1431
S'A'
aS'end_addr_L'
p1432
asg18
S''
sg19
I0
sg20
I0
sg21
S'mov'
p1433
sba(iarch
instruction
p1434
(dp1435
g13
L2156L
sg14
Nsg15
(lp1436
S'A'
aS'max_flash_addr_L'
p1437
asg18
S''
sg19
I0
sg20
I0
sg21
S'cmp'
p1438
sba(iarch
instruction
p1439
(dp1440
g13
L2158L
sg14
Nsg15
(lp1441
S'loc_872'
p1442
asg18
S''
sg19
I0
sg20
I1
sg21
S'bc'
p1443
sbasg37
I0
sbatRp1444
sg1412
g1
((ltRp1445
s(iarch
basic_blk
p1446
(dp1447
g9
(lp1448
(iarch
instruction
p1449
(dp1450
g13
L2144L
sg14
Nsg15
(lp1451
S'loc_874'
p1452
asg18
S''
sg19
I0
sg20
I1
sg21
S'bnz'
p1453
sbasg37
I0
sbg1
((lp1454
g1412
ag1363
atRp1455
s(iarch
basic_blk
p1456
(dp1457
g9
(lp1458
(iarch
instruction
p1459
(dp1460
g13
L2138L
sg14
Nsg15
(lp1461
S'A'
aS'end_addr_H'
p1462
asg18
S''
sg19
I0
sg20
I0
sg21
S'mov'
p1463
sba(iarch
instruction
p1464
(dp1465
g13
L2140L
sg14
Nsg15
(lp1466
S'A'
aS'max_flash_addr_H'
p1467
asg18
S''
sg19
I0
sg20
I0
sg21
S'cmp'
p1468
sba(iarch
instruction
p1469
(dp1470
g13
L2142L
sg14
Nsg15
(lp1471
S'loc_872'
p1472
asg18
S''
sg19
I0
sg20
I1
sg21
S'bc'
p1473
sbasg37
I0
sbg1
((lp1474
g1446
ag1390
atRp1475
sg1390
g1
((ltRp1476
sg1426
g1
((lp1477
g1403
ag1390
atRp1478
ssg39
g43
sg47
L2138L
sg48
L2166L
sbag366
a(icfg
cfg
p1479
(dp1480
g5
(dp1481
(iarch
basic_blk
p1482
(dp1483
g9
(lp1484
(iarch
instruction
p1485
(dp1486
g13
L2194L
sg14
Nsg15
(lp1487
S'flash_getbyte_reg.03h'
p1488
asg18
S''
sg19
I0
sg20
I0
sg21
S'set1'
p1489
sba(iarch
instruction
p1490
(dp1491
g13
L2197L
sg14
g655
sg15
(lp1492
S'!sub_FE9'
p1493
asg18
S''
sg19
I0
sg20
I3
sg21
S'call'
p1494
sba(iarch
instruction
p1495
(dp1496
g13
L2200L
sg14
Nsg15
(lp1497
S'HL'
p1498
aS'#msg_buffer_b1'
p1499
asg18
S''
sg19
I0
sg20
I0
sg21
S'movw'
p1500
sba(iarch
instruction
p1501
(dp1502
g13
L2203L
sg14
Nsg15
(lp1503
S'A'
aS'[HL+03h]'
p1504
asg18
S''
sg19
I0
sg20
I0
sg21
S'mov'
p1505
sba(iarch
instruction
p1506
(dp1507
g13
L2205L
sg14
Nsg15
(lp1508
S'addr_H'
p1509
aS'A'
asg18
S''
sg19
I0
sg20
I0
sg21
S'mov'
p1510
sba(iarch
instruction
p1511
(dp1512
g13
L2207L
sg14
Nsg15
(lp1513
S'end_addr_H'
p1514
aS'A'
asg18
S''
sg19
I0
sg20
I0
sg21
S'mov'
p1515
sba(iarch
instruction
p1516
(dp1517
g13
L2209L
sg14
Nsg15
(lp1518
S'A'
aS'[HL+04h]'
p1519
asg18
S''
sg19
I0
sg20
I0
sg21
S'mov'
p1520
sba(iarch
instruction
p1521
(dp1522
g13
L2211L
sg14
Nsg15
(lp1523
S'addr_M'
p1524
aS'A'
asg18
S''
sg19
I0
sg20
I0
sg21
S'mov'
p1525
sba(iarch
instruction
p1526
(dp1527
g13
L2213L
sg14
Nsg15
(lp1528
S'end_addr_M'
p1529
aS'A'
asg18
S''
sg19
I0
sg20
I0
sg21
S'mov'
p1530
sba(iarch
instruction
p1531
(dp1532
g13
L2215L
sg14
Nsg15
(lp1533
S'A'
aS'[HL+05h]'
p1534
asg18
S''
sg19
I0
sg20
I0
sg21
S'mov'
p1535
sba(iarch
instruction
p1536
(dp1537
g13
L2217L
sg14
Nsg15
(lp1538
S'addr_L'
p1539
aS'A'
asg18
S''
sg19
I0
sg20
I0
sg21
S'mov'
p1540
sba(iarch
instruction
p1541
(dp1542
g13
L2219L
sg14
Nsg15
(lp1543
S'end_addr_L'
p1544
aS'A'
asg18
S''
sg19
I0
sg20
I0
sg21
S'mov'
p1545
sba(iarch
instruction
p1546
(dp1547
g13
L2221L
sg14
(icfg
cfg
p1548
(dp1549
g5
(dp1550
(iarch
basic_blk
p1551
(dp1552
g9
(lp1553
(iarch
instruction
p1554
(dp1555
g13
L4532L
sg14
Nsg15
(lp1556
S'addr_H'
p1557
aS'#01h'
p1558
asg18
S''
sg19
I0
sg20
I0
sg21
S'cmp'
p1559
sba(iarch
instruction
p1560
(dp1561
g13
L4535L
sg14
Nsg15
(lp1562
S'loc_11BB'
p1563
asg18
S''
sg19
I0
sg20
I1
sg21
S'bnz'
p1564
sbasg37
I0
sbg1
((lp1565
(iarch
basic_blk
p1566
(dp1567
g9
(lp1568
(iarch
instruction
p1569
(dp1570
g13
L4539L
sg14
Nsg15
(lp1571
S'BC'
p1572
asg18
S''
sg19
I0
sg20
I0
sg21
S'pop'
p1573
sba(iarch
instruction
p1574
(dp1575
g13
L4540L
sg14
Nsg15
(lp1576
sg18
S''
sg19
I0
sg20
I0
sg21
S'ret'
p1577
sbasg37
I0
sba(iarch
basic_blk
p1578
(dp1579
g9
(lp1580
(iarch
instruction
p1581
(dp1582
g13
L4537L
sg14
Nsg15
(lp1583
S'A'
aS'#40h'
p1584
asg18
S''
sg19
I0
sg20
I0
sg21
S'add'
p1585
sbasg37
I0
sbatRp1586
s(iarch
basic_blk
p1587
(dp1588
g9
(lp1589
(iarch
instruction
p1590
(dp1591
g13
L4488L
sg14
Nsg15
(lp1592
S'A'
aS'addr_L'
p1593
asg18
S''
sg19
I0
sg20
I0
sg21
S'mov'
p1594
sba(iarch
instruction
p1595
(dp1596
g13
L4490L
sg14
Nsg15
(lp1597
S'A'
aS'X'
asg18
S''
sg19
I0
sg20
I0
sg21
S'xch'
p1598
sba(iarch
instruction
p1599
(dp1600
g13
L4491L
sg14
Nsg15
(lp1601
S'A'
aS'addr_M'
p1602
asg18
S''
sg19
I0
sg20
I0
sg21
S'mov'
p1603
sba(iarch
instruction
p1604
(dp1605
g13
L4493L
sg14
Nsg15
(lp1606
S'loc_11A5'
p1607
asg18
S''
sg19
I0
sg20
I2
sg21
S'br'
p1608
sbasg37
I0
sbg1
((lp1609
(iarch
basic_blk
p1610
(dp1611
g9
(lp1612
(iarch
instruction
p1613
(dp1614
g13
L4517L
sg14
Nsg15
(lp1615
S'C'
aS'#08h'
p1616
asg18
S''
sg19
I0
sg20
I0
sg21
S'mov'
p1617
sba(iarch
instruction
p1618
(dp1619
g13
L4519L
sg14
Nsg15
(lp1620
S'C'
asg18
S''
sg19
I0
sg20
I0
sg21
S'divuw'
p1621
sba(iarch
instruction
p1622
(dp1623
g13
L4521L
sg14
Nsg15
(lp1624
S'C'
aS'#80h'
p1625
asg18
S''
sg19
I0
sg20
I0
sg21
S'mov'
p1626
sba(iarch
instruction
p1627
(dp1628
g13
L4523L
sg14
Nsg15
(lp1629
S'C'
asg18
S''
sg19
I0
sg20
I0
sg21
S'divuw'
p1630
sba(iarch
instruction
p1631
(dp1632
g13
L4525L
sg14
Nsg15
(lp1633
S'A'
aS'X'
asg18
S''
sg19
I0
sg20
I0
sg21
S'xch'
p1634
sba(iarch
instruction
p1635
(dp1636
g13
L4526L
sg14
Nsg15
(lp1637
S'addr_L'
p1638
aS'#0FFh'
p1639
asg18
S''
sg19
I0
sg20
I0
sg21
S'cmp'
p1640
sba(iarch
instruction
p1641
(dp1642
g13
L4529L
sg14
Nsg15
(lp1643
S'loc_11B4'
p1644
asg18
S''
sg19
I0
sg20
I1
sg21
S'bnz'
p1645
sbasg37
I0
sbatRp1646
s(iarch
basic_blk
p1647
(dp1648
g9
(lp1649
(iarch
instruction
p1650
(dp1651
g13
L4483L
sg14
Nsg15
(lp1652
S'addr_M'
p1653
aS'#00h'
p1654
asg18
S''
sg19
I0
sg20
I0
sg21
S'cmp'
p1655
sba(iarch
instruction
p1656
(dp1657
g13
L4486L
sg14
Nsg15
(lp1658
S'loc_118F'
p1659
asg18
S''
sg19
I0
sg20
I1
sg21
S'bz'
p1660
sbasg37
I0
sbg1
((lp1661
g1587
a(iarch
basic_blk
p1662
(dp1663
g9
(lp1664
(iarch
instruction
p1665
(dp1666
g13
L4495L
sg14
Nsg15
(lp1667
S'A'
aS'#00h'
p1668
asg18
S''
sg19
I0
sg20
I0
sg21
S'mov'
p1669
sba(iarch
instruction
p1670
(dp1671
g13
L4497L
sg14
Nsg15
(lp1672
S'loc_11B4'
p1673
asg18
S''
sg19
I0
sg20
I2
sg21
S'br'
p1674
sbasg37
I0
sbatRp1675
sg1610
g1
((lp1676
g1551
a(iarch
basic_blk
p1677
(dp1678
g9
(lp1679
(iarch
instruction
p1680
(dp1681
g13
L4531L
sg14
Nsg15
(lp1682
S'A'
asg18
S''
sg19
I0
sg20
I0
sg21
S'dec'
p1683
sbasg37
I0
sbatRp1684
s(iarch
basic_blk
p1685
(dp1686
g9
(lp1687
(iarch
instruction
p1688
(dp1689
g13
L4504L
sg14
Nsg15
(lp1690
S'A'
aS'#3Fh'
p1691
asg18
S''
sg19
I0
sg20
I0
sg21
S'mov'
p1692
sba(iarch
instruction
p1693
(dp1694
g13
L4506L
sg14
Nsg15
(lp1695
S'loc_11B4'
p1696
asg18
S''
sg19
I0
sg20
I2
sg21
S'br'
p1697
sbasg37
I0
sbg1
((lp1698
g1551
atRp1699
s(iarch
basic_blk
p1700
(dp1701
g9
(lp1702
(iarch
instruction
p1703
(dp1704
g13
L4508L
sg14
Nsg15
(lp1705
S'A'
aS'addr_L'
p1706
asg18
S''
sg19
I0
sg20
I0
sg21
S'mov'
p1707
sba(iarch
instruction
p1708
(dp1709
g13
L4510L
sg14
Nsg15
(lp1710
S'A'
aS'#01h'
p1711
asg18
S''
sg19
I0
sg20
I0
sg21
S'add'
p1712
sba(iarch
instruction
p1713
(dp1714
g13
L4512L
sg14
Nsg15
(lp1715
S'A'
aS'X'
asg18
S''
sg19
I0
sg20
I0
sg21
S'xch'
p1716
sba(iarch
instruction
p1717
(dp1718
g13
L4513L
sg14
Nsg15
(lp1719
S'A'
aS'addr_M'
p1720
asg18
S''
sg19
I0
sg20
I0
sg21
S'mov'
p1721
sba(iarch
instruction
p1722
(dp1723
g13
L4515L
sg14
Nsg15
(lp1724
S'A'
aS'#00h'
p1725
asg18
S''
sg19
I0
sg20
I0
sg21
S'addc'
p1726
sbasg37
I0
sbg1
((lp1727
g1610
atRp1728
sg1578
g1
((lp1729
g1566
atRp1730
s(iarch
basic_blk
p1731
(dp1732
g9
(lp1733
(iarch
instruction
p1734
(dp1735
g13
L4477L
sg14
Nsg15
(lp1736
S'BC'
p1737
asg18
S''
sg19
I0
sg20
I0
sg21
S'push'
p1738
sba(iarch
instruction
p1739
(dp1740
g13
L4478L
sg14
Nsg15
(lp1741
S'addr_L'
p1742
aS'#0FFh'
p1743
asg18
S''
sg19
I0
sg20
I0
sg21
S'cmp'
p1744
sba(iarch
instruction
p1745
(dp1746
g13
L4481L
sg14
Nsg15
(lp1747
S'loc_1193'
p1748
asg18
S''
sg19
I0
sg20
I1
sg21
S'bz'
p1749
sbasg37
I0
sbg1
((lp1750
(iarch
basic_blk
p1751
(dp1752
g9
(lp1753
(iarch
instruction
p1754
(dp1755
g13
L4499L
sg14
Nsg15
(lp1756
S'addr_M'
p1757
aS'#0FFh'
p1758
asg18
S''
sg19
I0
sg20
I0
sg21
S'cmp'
p1759
sba(iarch
instruction
p1760
(dp1761
g13
L4502L
sg14
Nsg15
(lp1762
S'loc_119C'
p1763
asg18
S''
sg19
I0
sg20
I1
sg21
S'bnz'
p1764
sbasg37
I0
sbag1647
atRp1765
sg1751
g1
((lp1766
g1685
ag1700
atRp1767
sg1677
g1
((lp1768
g1551
atRp1769
sg1566
g1
((ltRp1770
sg1662
g1
((lp1771
g1551
atRp1772
ssg39
g43
sg47
L4477L
sg48
L4541L
sbsg15
(lp1773
S'!get_block_no'
p1774
asg18
S''
sg19
I0
sg20
I3
sg21
S'call'
p1775
sba(iarch
instruction
p1776
(dp1777
g13
L2224L
sg14
Nsg15
(lp1778
S'end_block_no_0'
p1779
aS'A'
asg18
S''
sg19
I0
sg20
I0
sg21
S'mov'
p1780
sba(iarch
instruction
p1781
(dp1782
g13
L2226L
sg14
Nsg15
(lp1783
S'A'
aS'[HL+00h]'
p1784
asg18
S''
sg19
I0
sg20
I0
sg21
S'mov'
p1785
sba(iarch
instruction
p1786
(dp1787
g13
L2228L
sg14
Nsg15
(lp1788
S'addr_H'
p1789
aS'A'
asg18
S''
sg19
I0
sg20
I0
sg21
S'mov'
p1790
sba(iarch
instruction
p1791
(dp1792
g13
L2230L
sg14
Nsg15
(lp1793
S'A'
aS'[HL+01h]'
p1794
asg18
S''
sg19
I0
sg20
I0
sg21
S'mov'
p1795
sba(iarch
instruction
p1796
(dp1797
g13
L2232L
sg14
Nsg15
(lp1798
S'addr_M'
p1799
aS'A'
asg18
S''
sg19
I0
sg20
I0
sg21
S'mov'
p1800
sba(iarch
instruction
p1801
(dp1802
g13
L2234L
sg14
Nsg15
(lp1803
S'A'
aS'[HL+02h]'
p1804
asg18
S''
sg19
I0
sg20
I0
sg21
S'mov'
p1805
sba(iarch
instruction
p1806
(dp1807
g13
L2236L
sg14
Nsg15
(lp1808
S'addr_L'
p1809
aS'A'
asg18
S''
sg19
I0
sg20
I0
sg21
S'mov'
p1810
sba(iarch
instruction
p1811
(dp1812
g13
L2238L
sg14
g1548
sg15
(lp1813
S'!get_block_no'
p1814
asg18
S''
sg19
I0
sg20
I3
sg21
S'call'
p1815
sba(iarch
instruction
p1816
(dp1817
g13
L2241L
sg14
Nsg15
(lp1818
S'start_block_no'
p1819
aS'A'
asg18
S''
sg19
I0
sg20
I0
sg21
S'mov'
p1820
sba(iarch
instruction
p1821
(dp1822
g13
L2243L
sg14
Nsg15
(lp1823
S'A'
aS'end_block_no_0'
p1824
asg18
S''
sg19
I0
sg20
I0
sg21
S'mov'
p1825
sba(iarch
instruction
p1826
(dp1827
g13
L2245L
sg14
Nsg15
(lp1828
S'A'
aS'start_block_no'
p1829
asg18
S''
sg19
I0
sg20
I0
sg21
S'sub'
p1830
sba(iarch
instruction
p1831
(dp1832
g13
L2247L
sg14
Nsg15
(lp1833
S'A'
asg18
S''
sg19
I0
sg20
I0
sg21
S'inc'
p1834
sba(iarch
instruction
p1835
(dp1836
g13
L2248L
sg14
Nsg15
(lp1837
S'diff_block_no'
p1838
aS'A'
asg18
S''
sg19
I0
sg20
I0
sg21
S'mov'
p1839
sba(iarch
instruction
p1840
(dp1841
g13
L2250L
sg14
g1360
sg15
(lp1842
S'!comp_end_addr'
p1843
asg18
S''
sg19
I0
sg20
I3
sg21
S'call'
p1844
sba(iarch
instruction
p1845
(dp1846
g13
L2253L
sg14
Nsg15
(lp1847
S'loc_874'
p1848
asg18
S''
sg19
I0
sg20
I1
sg21
S'bc'
p1849
sbasg37
I0
sbg1
((lp1850
(iarch
basic_blk
p1851
(dp1852
g9
(lp1853
(iarch
instruction
p1854
(dp1855
g13
L2164L
sg14
Nsg15
(lp1856
S'CY'
p1857
asg18
S''
sg19
I0
sg20
I0
sg21
S'set1'
p1858
sba(iarch
instruction
p1859
(dp1860
g13
L2165L
sg14
Nsg15
(lp1861
sg18
S''
sg19
I0
sg20
I0
sg21
S'ret'
p1862
sbasg37
I0
sba(iarch
basic_blk
p1863
(dp1864
g9
(lp1865
(iarch
instruction
p1866
(dp1867
g13
L2255L
sg14
Nsg15
(lp1868
S'A'
aS'addr_H'
p1869
asg18
S''
sg19
I0
sg20
I0
sg21
S'mov'
p1870
sba(iarch
instruction
p1871
(dp1872
g13
L2257L
sg14
Nsg15
(lp1873
S'A'
aS'end_addr_H'
p1874
asg18
S''
sg19
I0
sg20
I0
sg21
S'cmp'
p1875
sba(iarch
instruction
p1876
(dp1877
g13
L2259L
sg14
Nsg15
(lp1878
S'loc_8E7'
p1879
asg18
S''
sg19
I0
sg20
I1
sg21
S'bc'
p1880
sbasg37
I0
sbatRp1881
s(iarch
basic_blk
p1882
(dp1883
g9
(lp1884
(iarch
instruction
p1885
(dp1886
g13
L2261L
sg14
Nsg15
(lp1887
S'loc_8E5'
p1888
asg18
S''
sg19
I0
sg20
I1
sg21
S'bnz'
p1889
sbasg37
I0
sbg1
((lp1890
(iarch
basic_blk
p1891
(dp1892
g9
(lp1893
(iarch
instruction
p1894
(dp1895
g13
L2277L
sg14
Nsg15
(lp1896
S'CY'
p1897
asg18
S''
sg19
I0
sg20
I0
sg21
S'set1'
p1898
sba(iarch
instruction
p1899
(dp1900
g13
L2278L
sg14
Nsg15
(lp1901
sg18
S''
sg19
I0
sg20
I0
sg21
S'ret'
p1902
sbasg37
I0
sba(iarch
basic_blk
p1903
(dp1904
g9
(lp1905
(iarch
instruction
p1906
(dp1907
g13
L2263L
sg14
Nsg15
(lp1908
S'A'
aS'addr_M'
p1909
asg18
S''
sg19
I0
sg20
I0
sg21
S'mov'
p1910
sba(iarch
instruction
p1911
(dp1912
g13
L2265L
sg14
Nsg15
(lp1913
S'A'
aS'end_addr_M'
p1914
asg18
S''
sg19
I0
sg20
I0
sg21
S'cmp'
p1915
sba(iarch
instruction
p1916
(dp1917
g13
L2267L
sg14
Nsg15
(lp1918
S'loc_8E7'
p1919
asg18
S''
sg19
I0
sg20
I1
sg21
S'bc'
p1920
sbasg37
I0
sbatRp1921
sg1851
g1
((ltRp1922
sg1891
g1
((ltRp1923
s(iarch
basic_blk
p1924
(dp1925
g9
(lp1926
(iarch
instruction
p1927
(dp1928
g13
L2271L
sg14
Nsg15
(lp1929
S'A'
aS'addr_L'
p1930
asg18
S''
sg19
I0
sg20
I0
sg21
S'mov'
p1931
sba(iarch
instruction
p1932
(dp1933
g13
L2273L
sg14
Nsg15
(lp1934
S'A'
aS'end_addr_L'
p1935
asg18
S''
sg19
I0
sg20
I0
sg21
S'cmp'
p1936
sba(iarch
instruction
p1937
(dp1938
g13
L2275L
sg14
Nsg15
(lp1939
S'loc_8E7'
p1940
asg18
S''
sg19
I0
sg20
I1
sg21
S'bc'
p1941
sbasg37
I0
sbg1
((lp1942
g1891
a(iarch
basic_blk
p1943
(dp1944
g9
(lp1945
(iarch
instruction
p1946
(dp1947
g13
L2279L
sg14
Nsg15
(lp1948
S'CY'
p1949
asg18
S''
sg19
I0
sg20
I0
sg21
S'clr1'
p1950
sba(iarch
instruction
p1951
(dp1952
g13
L2280L
sg14
Nsg15
(lp1953
sg18
S''
sg19
I0
sg20
I0
sg21
S'ret'
p1954
sbasg37
I0
sbatRp1955
sg1903
g1
((lp1956
g1943
a(iarch
basic_blk
p1957
(dp1958
g9
(lp1959
(iarch
instruction
p1960
(dp1961
g13
L2269L
sg14
Nsg15
(lp1962
S'loc_8E5'
p1963
asg18
S''
sg19
I0
sg20
I1
sg21
S'bnz'
p1964
sbasg37
I0
sbatRp1965
sg1863
g1
((lp1966
g1943
ag1882
atRp1967
sg1943
g1
((ltRp1968
sg1957
g1
((lp1969
g1891
ag1924
atRp1970
ssg39
g43
sg47
L2194L
sg48
L2281L
sbag1111
ag1548
a(icfg
cfg
p1971
(dp1972
g5
(dp1973
(iarch
basic_blk
p1974
(dp1975
g9
(lp1976
(iarch
instruction
p1977
(dp1978
g13
L1682L
sg14
g997
sg15
(lp1979
S'!sub_1319'
p1980
asg18
S''
sg19
I0
sg20
I3
sg21
S'call'
p1981
sba(iarch
instruction
p1982
(dp1983
g13
L1685L
sg14
Nsg15
(lp1984
S'loc_69B'
p1985
asg18
S''
sg19
I0
sg20
I1
sg21
S'bc'
p1986
sbasg37
I0
sbg1
((lp1987
(iarch
basic_blk
p1988
(dp1989
g9
(lp1990
(iarch
instruction
p1991
(dp1992
g13
L1691L
sg14
Nsg15
(lp1993
S'B'
aS'#06h'
p1994
asg18
S''
sg19
I0
sg20
I0
sg21
S'mov'
p1995
sbasg37
I0
sba(iarch
basic_blk
p1996
(dp1997
g9
(lp1998
(iarch
instruction
p1999
(dp2000
g13
L1687L
sg14
Nsg15
(lp2001
S'B'
aS'#13h'
p2002
asg18
S''
sg19
I0
sg20
I0
sg21
S'mov'
p2003
sba(iarch
instruction
p2004
(dp2005
g13
L1689L
sg14
Nsg15
(lp2006
S'loc_69D'
p2007
asg18
S''
sg19
I0
sg20
I2
sg21
S'br'
p2008
sbasg37
I0
sbatRp2009
s(iarch
basic_blk
p2010
(dp2011
g9
(lp2012
(iarch
instruction
p2013
(dp2014
g13
L1693L
sg14
Nsg15
(lp2015
S'B'
aS'loc_69D'
p2016
asg18
S''
sg19
I0
sg20
I1
sg21
S'dbnz'
p2017
sbasg37
I0
sbg1
((lp2018
(iarch
basic_blk
p2019
(dp2020
g9
(lp2021
(iarch
instruction
p2022
(dp2023
g13
L1695L
sg14
Nsg15
(lp2024
sg18
S''
sg19
I0
sg20
I0
sg21
S'ret'
p2025
sbasg37
I0
sba(iarch
basic_blk
p2026
(dp2027
g9
(lp2028
(iarch
instruction
p2029
(dp2030
g13
L1693L
sg14
Nsg15
(lp2031
S'B'
aS'loc_69D'
p2032
asg18
S''
sg19
I0
sg20
I1
sg21
S'dbnz'
p2033
sbasg37
I0
sbatRp2034
sg2019
g1
((ltRp2035
sg1988
g1
((lp2036
(iarch
basic_blk
p2037
(dp2038
g9
(lp2039
(iarch
instruction
p2040
(dp2041
g13
L1693L
sg14
Nsg15
(lp2042
S'B'
aS'loc_69D'
p2043
asg18
S''
sg19
I0
sg20
I1
sg21
S'dbnz'
p2044
sbasg37
I0
sbatRp2045
sg1996
g1
((lp2046
g2010
atRp2047
ssg39
g43
sg47
L1682L
sg48
L1696L
sba(icfg
cfg
p2048
(dp2049
g5
(dp2050
(iarch
basic_blk
p2051
(dp2052
g9
(lp2053
(iarch
instruction
p2054
(dp2055
g13
L6917L
sg14
Nsg15
(lp2056
S'loc_1AD4'
p2057
asg18
S''
sg19
I0
sg20
I2
sg21
S'br'
p2058
sbasg37
I0
sbg1
((lp2059
(iarch
basic_blk
p2060
(dp2061
g9
(lp2062
(iarch
instruction
p2063
(dp2064
g13
L6868L
sg14
(icfg
cfg
p2065
(dp2066
g5
(dp2067
(iarch
basic_blk
p2068
(dp2069
g9
(lp2070
(iarch
instruction
p2071
(dp2072
g13
L1909L
sg14
Nsg15
(lp2073
S'A'
aS'addr_L'
p2074
asg18
S''
sg19
I0
sg20
I0
sg21
S'mov'
p2075
sba(iarch
instruction
p2076
(dp2077
g13
L1911L
sg14
Nsg15
(lp2078
S'flash_magic_reg_1'
p2079
aS'A'
asg18
S''
sg19
I0
sg20
I0
sg21
S'mov'
p2080
sba(iarch
instruction
p2081
(dp2082
g13
L1913L
sg14
Nsg15
(lp2083
S'A'
aS'addr_M'
p2084
asg18
S''
sg19
I0
sg20
I0
sg21
S'mov'
p2085
sba(iarch
instruction
p2086
(dp2087
g13
L1915L
sg14
Nsg15
(lp2088
S'flash_magic_reg_2'
p2089
aS'A'
asg18
S''
sg19
I0
sg20
I0
sg21
S'mov'
p2090
sba(iarch
instruction
p2091
(dp2092
g13
L1917L
sg14
Nsg15
(lp2093
S'A'
aS'addr_H'
p2094
asg18
S''
sg19
I0
sg20
I0
sg21
S'mov'
p2095
sba(iarch
instruction
p2096
(dp2097
g13
L1919L
sg14
Nsg15
(lp2098
S'flash_magic_reg_0'
p2099
aS'A'
asg18
S''
sg19
I0
sg20
I0
sg21
S'mov'
p2100
sba(iarch
instruction
p2101
(dp2102
g13
L1921L
sg14
Nsg15
(lp2103
sg18
S''
sg19
I0
sg20
I0
sg21
S'ret'
p2104
sbasg37
I0
sbg1
((ltRp2105
ssg39
g43
sg47
L1909L
sg48
L1922L
sbsg15
(lp2106
S'!sub_775'
p2107
asg18
S''
sg19
I0
sg20
I3
sg21
S'call'
p2108
sba(iarch
instruction
p2109
(dp2110
g13
L6871L
sg14
g598
sg15
(lp2111
S'!sub_6B2'
p2112
asg18
S''
sg19
I0
sg20
I3
sg21
S'call'
p2113
sba(iarch
instruction
p2114
(dp2115
g13
L6874L
sg14
Nsg15
(lp2116
S'A'
aS'!flash_return_byte_2'
p2117
asg18
S''
sg19
I0
sg20
I0
sg21
S'mov'
p2118
sba(iarch
instruction
p2119
(dp2120
g13
L6877L
sg14
Nsg15
(lp2121
S'E'
aS'A'
asg18
S''
sg19
I0
sg20
I0
sg21
S'sub'
p2122
sba(iarch
instruction
p2123
(dp2124
g13
L6879L
sg14
Nsg15
(lp2125
S'A'
aS'D'
asg18
S''
sg19
I0
sg20
I0
sg21
S'xch'
p2126
sba(iarch
instruction
p2127
(dp2128
g13
L6880L
sg14
Nsg15
(lp2129
S'A'
aS'#00h'
p2130
asg18
S''
sg19
I0
sg20
I0
sg21
S'subc'
p2131
sba(iarch
instruction
p2132
(dp2133
g13
L6882L
sg14
Nsg15
(lp2134
S'A'
aS'D'
asg18
S''
sg19
I0
sg20
I0
sg21
S'xch'
p2135
sba(iarch
instruction
p2136
(dp2137
g13
L6883L
sg14
Nsg15
(lp2138
S'A'
aS'!flash_return_byte_2+1'
p2139
asg18
S''
sg19
I0
sg20
I0
sg21
S'mov'
p2140
sba(iarch
instruction
p2141
(dp2142
g13
L6886L
sg14
Nsg15
(lp2143
S'E'
aS'A'
asg18
S''
sg19
I0
sg20
I0
sg21
S'sub'
p2144
sba(iarch
instruction
p2145
(dp2146
g13
L6888L
sg14
Nsg15
(lp2147
S'A'
aS'D'
asg18
S''
sg19
I0
sg20
I0
sg21
S'xch'
p2148
sba(iarch
instruction
p2149
(dp2150
g13
L6889L
sg14
Nsg15
(lp2151
S'A'
aS'#00h'
p2152
asg18
S''
sg19
I0
sg20
I0
sg21
S'subc'
p2153
sba(iarch
instruction
p2154
(dp2155
g13
L6891L
sg14
Nsg15
(lp2156
S'A'
aS'D'
asg18
S''
sg19
I0
sg20
I0
sg21
S'xch'
p2157
sba(iarch
instruction
p2158
(dp2159
g13
L6892L
sg14
Nsg15
(lp2160
S'A'
aS'!flash_return_byte_0'
p2161
asg18
S''
sg19
I0
sg20
I0
sg21
S'mov'
p2162
sba(iarch
instruction
p2163
(dp2164
g13
L6895L
sg14
Nsg15
(lp2165
S'E'
aS'A'
asg18
S''
sg19
I0
sg20
I0
sg21
S'sub'
p2166
sba(iarch
instruction
p2167
(dp2168
g13
L6897L
sg14
Nsg15
(lp2169
S'A'
aS'D'
asg18
S''
sg19
I0
sg20
I0
sg21
S'xch'
p2170
sba(iarch
instruction
p2171
(dp2172
g13
L6898L
sg14
Nsg15
(lp2173
S'A'
aS'#00h'
p2174
asg18
S''
sg19
I0
sg20
I0
sg21
S'subc'
p2175
sba(iarch
instruction
p2176
(dp2177
g13
L6900L
sg14
Nsg15
(lp2178
S'A'
aS'D'
asg18
S''
sg19
I0
sg20
I0
sg21
S'xch'
p2179
sba(iarch
instruction
p2180
(dp2181
g13
L6901L
sg14
Nsg15
(lp2182
S'A'
aS'!flash_return_byte_0+1'
p2183
asg18
S''
sg19
I0
sg20
I0
sg21
S'mov'
p2184
sba(iarch
instruction
p2185
(dp2186
g13
L6904L
sg14
Nsg15
(lp2187
S'E'
aS'A'
asg18
S''
sg19
I0
sg20
I0
sg21
S'sub'
p2188
sba(iarch
instruction
p2189
(dp2190
g13
L6906L
sg14
Nsg15
(lp2191
S'A'
aS'D'
asg18
S''
sg19
I0
sg20
I0
sg21
S'xch'
p2192
sba(iarch
instruction
p2193
(dp2194
g13
L6907L
sg14
Nsg15
(lp2195
S'A'
aS'#00h'
p2196
asg18
S''
sg19
I0
sg20
I0
sg21
S'subc'
p2197
sba(iarch
instruction
p2198
(dp2199
g13
L6909L
sg14
Nsg15
(lp2200
S'A'
aS'D'
asg18
S''
sg19
I0
sg20
I0
sg21
S'xch'
p2201
sba(iarch
instruction
p2202
(dp2203
g13
L6910L
sg14
Nsg15
(lp2204
S'DE'
p2205
asg18
S''
sg19
I0
sg20
I0
sg21
S'push'
p2206
sba(iarch
instruction
p2207
(dp2208
g13
L6911L
sg14
g187
sg15
(lp2209
S'!cmp_st_end_addr'
p2210
asg18
S''
sg19
I0
sg20
I3
sg21
S'call'
p2211
sba(iarch
instruction
p2212
(dp2213
g13
L6914L
sg14
Nsg15
(lp2214
S'DE'
p2215
asg18
S''
sg19
I0
sg20
I0
sg21
S'pop'
p2216
sba(iarch
instruction
p2217
(dp2218
g13
L6915L
sg14
Nsg15
(lp2219
S'loc_1B07'
p2220
asg18
S''
sg19
I0
sg20
I1
sg21
S'bc'
p2221
sbasg37
I0
sbatRp2222
sg2060
g1
((lp2223
(iarch
basic_blk
p2224
(dp2225
g9
(lp2226
(iarch
instruction
p2227
(dp2228
g13
L6919L
sg14
(icfg
cfg
p2229
(dp2230
g5
(dp2231
(iarch
basic_blk
p2232
(dp2233
g9
(lp2234
(iarch
instruction
p2235
(dp2236
g13
L1564L
sg14
Nsg15
(lp2237
S'B'
aS'#03h'
p2238
asg18
S''
sg19
I0
sg20
I0
sg21
S'mov'
p2239
sba(iarch
instruction
p2240
(dp2241
g13
L1566L
sg14
Nsg15
(lp2242
S'FLASH_REG_UNK.07h'
p2243
asg18
S''
sg19
I0
sg20
I0
sg21
S'clr1'
p2244
sba(iarch
instruction
p2245
(dp2246
g13
L1569L
sg14
Nsg15
(lp2247
S'FLASH_REG_UNK'
p2248
aS'#00h'
p2249
asg18
S''
sg19
I0
sg20
I0
sg21
S'mov'
p2250
sbasg37
I0
sbg1
((ltRp2251
s(iarch
basic_blk
p2252
(dp2253
g9
(lp2254
(iarch
instruction
p2255
(dp2256
g13
L1561L
sg14
Nsg15
(lp2257
S'flash_getbyte_reg.01h'
p2258
asg18
S''
sg19
I0
sg20
I0
sg21
S'clr1'
p2259
sbasg37
I0
sbg1
((lp2260
g2232
atRp2261
ssg39
g43
sg47
L1561L
sg48
L1569L
sbsg15
(lp2262
S'!sub_619'
p2263
asg18
S''
sg19
I0
sg20
I3
sg21
S'call'
p2264
sba(iarch
instruction
p2265
(dp2266
g13
L6922L
sg14
Nsg15
(lp2267
S'HL'
p2268
aS'#msg_buffer'
p2269
asg18
S''
sg19
I0
sg20
I0
sg21
S'movw'
p2270
sba(iarch
instruction
p2271
(dp2272
g13
L6925L
sg14
Nsg15
(lp2273
S'A'
aS'D'
asg18
S''
sg19
I0
sg20
I0
sg21
S'mov'
p2274
sba(iarch
instruction
p2275
(dp2276
g13
L6926L
sg14
Nsg15
(lp2277
S'[HL]'
p2278
aS'A'
asg18
S''
sg19
I0
sg20
I0
sg21
S'mov'
p2279
sba(iarch
instruction
p2280
(dp2281
g13
L6927L
sg14
Nsg15
(lp2282
S'A'
aS'E'
asg18
S''
sg19
I0
sg20
I0
sg21
S'mov'
p2283
sba(iarch
instruction
p2284
(dp2285
g13
L6928L
sg14
Nsg15
(lp2286
S'[HL+01h]'
p2287
aS'A'
asg18
S''
sg19
I0
sg20
I0
sg21
S'mov'
p2288
sba(iarch
instruction
p2289
(dp2290
g13
L6930L
sg14
Nsg15
(lp2291
S'DE'
p2292
aS'#msg_buffer'
p2293
asg18
S''
sg19
I0
sg20
I0
sg21
S'movw'
p2294
sba(iarch
instruction
p2295
(dp2296
g13
L6933L
sg14
Nsg15
(lp2297
S'C'
aS'#02h'
p2298
asg18
S''
sg19
I0
sg20
I0
sg21
S'mov'
p2299
sba(iarch
instruction
p2300
(dp2301
g13
L6935L
sg14
g1111
sg15
(lp2302
S'!sub_EF9'
p2303
asg18
S''
sg19
I0
sg20
I3
sg21
S'call'
p2304
sba(iarch
instruction
p2305
(dp2306
g13
L6938L
sg14
Nsg15
(lp2307
S'A'
aS'#06h'
p2308
asg18
S''
sg19
I0
sg20
I0
sg21
S'mov'
p2309
sba(iarch
instruction
p2310
(dp2311
g13
L6940L
sg14
Nsg15
(lp2312
S'!d_resp_0'
p2313
aS'A'
asg18
S''
sg19
I0
sg20
I0
sg21
S'mov'
p2314
sbasg37
I0
sbag2051
atRp2315
s(iarch
basic_blk
p2316
(dp2317
g9
(lp2318
(iarch
instruction
p2319
(dp2320
g13
L6824L
sg14
g1479
sg15
(lp2321
S'!sanity_check_addr'
p2322
asg18
S''
sg19
I0
sg20
I3
sg21
S'call'
p2323
sba(iarch
instruction
p2324
(dp2325
g13
L6827L
sg14
Nsg15
(lp2326
S'error_5'
p2327
asg18
S''
sg19
I0
sg20
I1
sg21
S'bc'
p2328
sbasg37
I0
sbg1
((lp2329
(iarch
basic_blk
p2330
(dp2331
g9
(lp2332
(iarch
instruction
p2333
(dp2334
g13
L6839L
sg14
g130
sg15
(lp2335
S'!resp_error_5'
p2336
asg18
S''
sg19
I0
sg20
I3
sg21
S'call'
p2337
sba(iarch
instruction
p2338
(dp2339
g13
L6842L
sg14
g1063
sg15
(lp2340
S'!send_resp?'
p2341
asg18
S''
sg19
I0
sg20
I3
sg21
S'call'
p2342
sba(iarch
instruction
p2343
(dp2344
g13
L6845L
sg14
Nsg15
(lp2345
S'loc_1B1F'
p2346
asg18
S''
sg19
I0
sg20
I2
sg21
S'br'
p2347
sbasg37
I0
sba(iarch
basic_blk
p2348
(dp2349
g9
(lp2350
(iarch
instruction
p2351
(dp2352
g13
L6829L
sg14
Nsg15
(lp2353
S'addr_L'
p2354
aS'#00h'
p2355
asg18
S''
sg19
I0
sg20
I0
sg21
S'cmp'
p2356
sba(iarch
instruction
p2357
(dp2358
g13
L6832L
sg14
Nsg15
(lp2359
S'error_5'
p2360
asg18
S''
sg19
I0
sg20
I1
sg21
S'bnz'
p2361
sbasg37
I0
sbatRp2362
sg2330
g1
((lp2363
(iarch
basic_blk
p2364
(dp2365
g9
(lp2366
(iarch
instruction
p2367
(dp2368
g13
L6943L
sg14
Nsg15
(lp2369
S'flash_getbyte_reg.03h'
p2370
asg18
S''
sg19
I0
sg20
I0
sg21
S'clr1'
p2371
sba(iarch
instruction
p2372
(dp2373
g13
L6946L
sg14
Nsg15
(lp2374
sg18
S''
sg19
I0
sg20
I0
sg21
S'ret'
p2375
sbasg37
I0
sbatRp2376
sg2348
g1
((lp2377
(iarch
basic_blk
p2378
(dp2379
g9
(lp2380
(iarch
instruction
p2381
(dp2382
g13
L6834L
sg14
Nsg15
(lp2383
S'end_addr_L'
p2384
aS'#0FFh'
p2385
asg18
S''
sg19
I0
sg20
I0
sg21
S'cmp'
p2386
sba(iarch
instruction
p2387
(dp2388
g13
L6837L
sg14
Nsg15
(lp2389
S'loc_1ABF'
p2390
asg18
S''
sg19
I0
sg20
I1
sg21
S'bz'
p2391
sbasg37
I0
sbag2330
atRp2392
s(iarch
basic_blk
p2393
(dp2394
g9
(lp2395
(iarch
instruction
p2396
(dp2397
g13
L6847L
sg14
(icfg
cfg
p2398
(dp2399
g5
(dp2400
(iarch
basic_blk
p2401
(dp2402
g9
(lp2403
(iarch
instruction
p2404
(dp2405
g13
L4066L
sg14
g1297
sg15
(lp2406
S'!resp_status_OK'
p2407
asg18
S''
sg19
I0
sg20
I3
sg21
S'call'
p2408
sba(iarch
instruction
p2409
(dp2410
g13
L4069L
sg14
g1063
sg15
(lp2411
S'!send_resp?'
p2412
asg18
S''
sg19
I0
sg20
I3
sg21
S'call'
p2413
sba(iarch
instruction
p2414
(dp2415
g13
L4072L
sg14
Nsg15
(lp2416
sg18
S''
sg19
I0
sg20
I0
sg21
S'ret'
p2417
sbasg37
I0
sbg1
((ltRp2418
ssg39
g43
sg47
L4066L
sg48
L4073L
sbsg15
(lp2419
S'!snd_status_ok'
p2420
asg18
S''
sg19
I0
sg20
I3
sg21
S'call'
p2421
sba(iarch
instruction
p2422
(dp2423
g13
L6850L
sg14
Nsg15
(lp2424
S'byte_FFC7.00h'
p2425
asg18
S''
sg19
I0
sg20
I0
sg21
S'clr1'
p2426
sba(iarch
instruction
p2427
(dp2428
g13
L6853L
sg14
g655
sg15
(lp2429
S'!sub_FE9'
p2430
asg18
S''
sg19
I0
sg20
I3
sg21
S'call'
p2431
sba(iarch
instruction
p2432
(dp2433
g13
L6856L
sg14
g1971
sg15
(lp2434
S'!wait_n_clks'
p2435
asg18
S''
sg19
I0
sg20
I3
sg21
S'call'
p2436
sba(iarch
instruction
p2437
(dp2438
g13
L6859L
sg14
(icfg
cfg
p2439
(dp2440
g5
(dp2441
(iarch
basic_blk
p2442
(dp2443
g9
(lp2444
(iarch
instruction
p2445
(dp2446
g13
L1584L
sg14
Nsg15
(lp2447
S'B'
aS'loc_630'
p2448
asg18
S''
sg19
I0
sg20
I1
sg21
S'dbnz'
p2449
sbasg37
I0
sbg1
((lp2450
(iarch
basic_blk
p2451
(dp2452
g9
(lp2453
(iarch
instruction
p2454
(dp2455
g13
L1584L
sg14
Nsg15
(lp2456
S'B'
aS'loc_630'
p2457
asg18
S''
sg19
I0
sg20
I1
sg21
S'dbnz'
p2458
sbasg37
I0
sba(iarch
basic_blk
p2459
(dp2460
g9
(lp2461
(iarch
instruction
p2462
(dp2463
g13
L1586L
sg14
Nsg15
(lp2464
sg18
S''
sg19
I0
sg20
I0
sg21
S'ret'
p2465
sbasg37
I0
sbatRp2466
s(iarch
basic_blk
p2467
(dp2468
g9
(lp2469
(iarch
instruction
p2470
(dp2471
g13
L1575L
sg14
(icfg
cfg
p2472
(dp2473
g5
(dp2474
(iarch
basic_blk
p2475
(dp2476
g9
(lp2477
(iarch
instruction
p2478
(dp2479
g13
L1592L
sg14
Nsg15
(lp2480
S'A'
aS'byte_FE30'
p2481
asg18
S''
sg19
I0
sg20
I0
sg21
S'mov'
p2482
sba(iarch
instruction
p2483
(dp2484
g13
L1594L
sg14
Nsg15
(lp2485
S'B'
aS'A'
asg18
S''
sg19
I0
sg20
I0
sg21
S'mov'
p2486
sba(iarch
instruction
p2487
(dp2488
g13
L1595L
sg14
Nsg15
(lp2489
sg18
S''
sg19
I0
sg20
I0
sg21
S'ret'
p2490
sbasg37
I0
sbg1
((ltRp2491
s(iarch
basic_blk
p2492
(dp2493
g9
(lp2494
(iarch
instruction
p2495
(dp2496
g13
L1596L
sg14
Nsg15
(lp2497
S'A'
aS'byte_FE31'
p2498
asg18
S''
sg19
I0
sg20
I0
sg21
S'mov'
p2499
sba(iarch
instruction
p2500
(dp2501
g13
L1598L
sg14
Nsg15
(lp2502
S'B'
aS'A'
asg18
S''
sg19
I0
sg20
I0
sg21
S'mov'
p2503
sba(iarch
instruction
p2504
(dp2505
g13
L1599L
sg14
Nsg15
(lp2506
sg18
S''
sg19
I0
sg20
I0
sg21
S'ret'
p2507
sbasg37
I0
sbg1
((ltRp2508
s(iarch
basic_blk
p2509
(dp2510
g9
(lp2511
(iarch
instruction
p2512
(dp2513
g13
L1587L
sg14
g997
sg15
(lp2514
S'!sub_1319'
p2515
asg18
S''
sg19
I0
sg20
I3
sg21
S'call'
p2516
sba(iarch
instruction
p2517
(dp2518
g13
L1590L
sg14
Nsg15
(lp2519
S'loc_63C'
p2520
asg18
S''
sg19
I0
sg20
I1
sg21
S'bc'
p2521
sbasg37
I0
sbg1
((lp2522
g2475
ag2492
atRp2523
ssg39
g43
sg47
L1587L
sg48
L1600L
sbsg15
(lp2524
S'!sub_633'
p2525
asg18
S''
sg19
I0
sg20
I3
sg21
S'call'
p2526
sba(iarch
instruction
p2527
(dp2528
g13
L1578L
sg14
Nsg15
(lp2529
S'FLASH_REG_UNK'
p2530
aS'#00h'
p2531
asg18
S''
sg19
I0
sg20
I0
sg21
S'mov'
p2532
sba(iarch
instruction
p2533
(dp2534
g13
L1581L
sg14
Nsg15
(lp2535
S'FLASH_REG_UNK.07h'
p2536
asg18
S''
sg19
I0
sg20
I0
sg21
S'set1'
p2537
sbasg37
I0
sbg1
((lp2538
g2442
atRp2539
sg2459
g1
((ltRp2540
ssg39
g43
sg47
L1575L
sg48
L1587L
sbsg15
(lp2541
S'!sub_627'
p2542
asg18
S''
sg19
I0
sg20
I3
sg21
S'call'
p2543
sba(iarch
instruction
p2544
(dp2545
g13
L6862L
sg14
Nsg15
(lp2546
S'DE'
p2547
aS'#0000h'
p2548
asg18
S''
sg19
I0
sg20
I0
sg21
S'movw'
p2549
sba(iarch
instruction
p2550
(dp2551
g13
L6865L
sg14
Nsg15
(lp2552
S'flash_getbyte_reg.01h'
p2553
asg18
S''
sg19
I0
sg20
I0
sg21
S'set1'
p2554
sbasg37
I0
sbg1
((lp2555
g2060
atRp2556
sg2364
g1
((ltRp2557
sg2224
g1
((lp2558
g2364
atRp2559
sg2378
g1
((lp2560
g2330
ag2393
atRp2561
ssg39
g43
sg47
L6824L
sg48
L6947L
sbag443
ag2398
ag2065
ag2439
ag2229
ag2472
atRp2562
.